

Microchip MPLAB XC8 Assembler V2.20 build 20200408173844 
                                                                                               Wed Jun 03 17:15:51 2020

Microchip MPLAB XC8 C Compiler v2.20 (Free license) build 20200408173844 Og1 
     1                           	processor	16F877A
     2                           	pagewidth 120
     3                           	opt	flic
     4                           	psect	idataCOMMON,global,class=CODE,delta=2,noexec
     5                           	psect	idataBANK1,global,class=CODE,delta=2,noexec
     6                           	psect	strings,global,class=STRING,delta=2,noexec
     7                           	psect	cinit,global,class=CODE,merge=1,delta=2
     8                           	psect	bssCOMMON,global,class=COMMON,space=1,delta=1,noexec
     9                           	psect	dataCOMMON,global,class=COMMON,space=1,delta=1,noexec
    10                           	psect	bssBANK1,global,class=BANK1,space=1,delta=1,noexec
    11                           	psect	dataBANK1,global,class=BANK1,space=1,delta=1,noexec
    12                           	psect	cstackBANK3,global,class=BANK3,space=1,delta=1,noexec
    13                           	psect	cstackBANK1,global,class=BANK1,space=1,delta=1,noexec
    14                           	psect	cstackCOMMON,global,class=COMMON,space=1,delta=1,noexec
    15                           	psect	cstackBANK0,global,class=BANK0,space=1,delta=1,noexec
    16                           	psect	maintext,global,class=CODE,split=1,delta=2
    17                           	psect	text1,local,class=CODE,merge=1,delta=2
    18                           	psect	text2,local,class=CODE,merge=1,delta=2
    19                           	psect	text3,local,class=CODE,merge=1,delta=2
    20                           	psect	text4,local,class=CODE,merge=1,delta=2
    21                           	psect	text5,local,class=CODE,merge=1,delta=2
    22                           	psect	text6,local,class=CODE,merge=1,delta=2,group=1
    23                           	psect	text7,local,class=CODE,merge=1,delta=2,group=2
    24                           	psect	text8,local,class=CODE,merge=1,delta=2,group=2
    25                           	psect	text9,local,class=CODE,merge=1,delta=2
    26                           	psect	text10,local,class=CODE,merge=1,delta=2,group=2
    27                           	psect	text11,local,class=CODE,merge=1,delta=2
    28                           	psect	text12,local,class=CODE,merge=1,delta=2
    29                           	psect	text13,local,class=CODE,merge=1,delta=2
    30                           	psect	text14,local,class=CODE,merge=1,delta=2
    31                           	psect	text15,local,class=CODE,merge=1,delta=2,group=2
    32                           	psect	text16,local,class=CODE,merge=1,delta=2,group=2
    33                           	psect	text17,local,class=CODE,merge=1,delta=2,group=2
    34                           	psect	text18,local,class=CODE,merge=1,delta=2,group=2
    35                           	psect	text19,local,class=CODE,merge=1,delta=2,group=2
    36                           	psect	text20,local,class=CODE,merge=1,delta=2
    37                           	psect	text21,local,class=CODE,merge=1,delta=2,group=3
    38                           	psect	text22,local,class=CODE,merge=1,delta=2
    39                           	psect	text23,local,class=CODE,merge=1,delta=2
    40                           	psect	text24,local,class=CODE,merge=1,delta=2
    41                           	psect	text25,local,class=CODE,merge=1,delta=2
    42                           	psect	text26,local,class=CODE,merge=1,delta=2
    43                           	psect	text27,local,class=CODE,merge=1,delta=2
    44                           	psect	text28,local,class=CODE,merge=1,delta=2
    45                           	psect	text29,local,class=CODE,merge=1,delta=2
    46                           	psect	text30,local,class=CODE,merge=1,delta=2
    47                           	psect	intentry,global,class=CODE,delta=2
    48                           	psect	config,global,abs,ovrld,class=CONFIG,space=4,delta=2,noexec
    49                           	dabs	1,0x7E,2
    50  0000                     
    51                           ; Version 2.20
    52                           ; Generated 12/02/2020 GMT
    53                           ; 
    54                           ; Copyright © 2020, Microchip Technology Inc. and its subsidiaries ("Microchip")
    55                           ; All rights reserved.
    56                           ; 
    57                           ; This software is developed by Microchip Technology Inc. and its subsidiaries ("Microch
      +                          ip").
    58                           ; 
    59                           ; Redistribution and use in source and binary forms, with or without modification, are
    60                           ; permitted provided that the following conditions are met:
    61                           ; 
    62                           ;     1. Redistributions of source code must retain the above copyright notice, this lis
      +                          t of
    63                           ;        conditions and the following disclaimer.
    64                           ; 
    65                           ;     2. Redistributions in binary form must reproduce the above copyright notice, this 
      +                          list
    66                           ;        of conditions and the following disclaimer in the documentation and/or other
    67                           ;        materials provided with the distribution.
    68                           ; 
    69                           ;     3. Microchip's name may not be used to endorse or promote products derived from th
      +                          is
    70                           ;        software without specific prior written permission.
    71                           ; 
    72                           ; THIS SOFTWARE IS PROVIDED BY MICROCHIP "AS IS" AND ANY EXPRESS OR IMPLIED WARRANTIES,
    73                           ; INCLUDING, BUT NOT LIMITED TO, THE IMPLIED WARRANTIES OF MERCHANTABILITY AND FITNESS F
      +                          OR
    74                           ; PURPOSE ARE DISCLAIMED.  IN NO EVENT SHALL MICROCHIP BE LIABLE FOR ANY DIRECT, INDIREC
      +                          T,
    75                           ; INCIDENTAL, SPECIAL, EXEMPLARY, OR CONSEQUENTIAL DAMAGES (INCLUDING BUT NOT LIMITED TO
    76                           ; PROCUREMENT OF SUBSTITUTE GOODS OR SERVICES; LOSS OF USE, DATA OR PROFITS; OR BUSINESS
    77                           ; INTERRUPTION) HOWSOEVER CAUSED AND ON ANY THEORY OF LIABILITY, WHETHER IN CONTRACT, ST
      +                          RICT
    78                           ; LIABILITY, OR TORT (INCLUDING NEGLIGENCE OR OTHERWISE) ARISING IN ANY WAY OUT OF THE U
      +                          SE OF
    79                           ; THIS SOFTWARE, EVEN IF ADVISED OF THE POSSIBILITY OF SUCH DAMAGE.
    80                           ; 
    81                           ; 
    82                           ; Code-generator required, PIC16F877A Definitions
    83                           ; 
    84                           ; SFR Addresses
    85  0000                     	;# 
    86  0001                     	;# 
    87  0002                     	;# 
    88  0003                     	;# 
    89  0004                     	;# 
    90  0005                     	;# 
    91  0006                     	;# 
    92  0007                     	;# 
    93  0008                     	;# 
    94  0009                     	;# 
    95  000A                     	;# 
    96  000B                     	;# 
    97  000C                     	;# 
    98  000D                     	;# 
    99  000E                     	;# 
   100  000E                     	;# 
   101  000F                     	;# 
   102  0010                     	;# 
   103  0011                     	;# 
   104  0012                     	;# 
   105  0013                     	;# 
   106  0014                     	;# 
   107  0015                     	;# 
   108  0015                     	;# 
   109  0016                     	;# 
   110  0017                     	;# 
   111  0018                     	;# 
   112  0019                     	;# 
   113  001A                     	;# 
   114  001B                     	;# 
   115  001B                     	;# 
   116  001C                     	;# 
   117  001D                     	;# 
   118  001E                     	;# 
   119  001F                     	;# 
   120  0081                     	;# 
   121  0085                     	;# 
   122  0086                     	;# 
   123  0087                     	;# 
   124  0088                     	;# 
   125  0089                     	;# 
   126  008C                     	;# 
   127  008D                     	;# 
   128  008E                     	;# 
   129  0091                     	;# 
   130  0092                     	;# 
   131  0093                     	;# 
   132  0094                     	;# 
   133  0098                     	;# 
   134  0099                     	;# 
   135  009C                     	;# 
   136  009D                     	;# 
   137  009E                     	;# 
   138  009F                     	;# 
   139  010C                     	;# 
   140  010D                     	;# 
   141  010E                     	;# 
   142  010F                     	;# 
   143  018C                     	;# 
   144  018D                     	;# 
   145  0000                     	;# 
   146  0001                     	;# 
   147  0002                     	;# 
   148  0003                     	;# 
   149  0004                     	;# 
   150  0005                     	;# 
   151  0006                     	;# 
   152  0007                     	;# 
   153  0008                     	;# 
   154  0009                     	;# 
   155  000A                     	;# 
   156  000B                     	;# 
   157  000C                     	;# 
   158  000D                     	;# 
   159  000E                     	;# 
   160  000E                     	;# 
   161  000F                     	;# 
   162  0010                     	;# 
   163  0011                     	;# 
   164  0012                     	;# 
   165  0013                     	;# 
   166  0014                     	;# 
   167  0015                     	;# 
   168  0015                     	;# 
   169  0016                     	;# 
   170  0017                     	;# 
   171  0018                     	;# 
   172  0019                     	;# 
   173  001A                     	;# 
   174  001B                     	;# 
   175  001B                     	;# 
   176  001C                     	;# 
   177  001D                     	;# 
   178  001E                     	;# 
   179  001F                     	;# 
   180  0081                     	;# 
   181  0085                     	;# 
   182  0086                     	;# 
   183  0087                     	;# 
   184  0088                     	;# 
   185  0089                     	;# 
   186  008C                     	;# 
   187  008D                     	;# 
   188  008E                     	;# 
   189  0091                     	;# 
   190  0092                     	;# 
   191  0093                     	;# 
   192  0094                     	;# 
   193  0098                     	;# 
   194  0099                     	;# 
   195  009C                     	;# 
   196  009D                     	;# 
   197  009E                     	;# 
   198  009F                     	;# 
   199  010C                     	;# 
   200  010D                     	;# 
   201  010E                     	;# 
   202  010F                     	;# 
   203  018C                     	;# 
   204  018D                     	;# 
   205  0000                     	;# 
   206  0001                     	;# 
   207  0002                     	;# 
   208  0003                     	;# 
   209  0004                     	;# 
   210  0005                     	;# 
   211  0006                     	;# 
   212  0007                     	;# 
   213  0008                     	;# 
   214  0009                     	;# 
   215  000A                     	;# 
   216  000B                     	;# 
   217  000C                     	;# 
   218  000D                     	;# 
   219  000E                     	;# 
   220  000E                     	;# 
   221  000F                     	;# 
   222  0010                     	;# 
   223  0011                     	;# 
   224  0012                     	;# 
   225  0013                     	;# 
   226  0014                     	;# 
   227  0015                     	;# 
   228  0015                     	;# 
   229  0016                     	;# 
   230  0017                     	;# 
   231  0018                     	;# 
   232  0019                     	;# 
   233  001A                     	;# 
   234  001B                     	;# 
   235  001B                     	;# 
   236  001C                     	;# 
   237  001D                     	;# 
   238  001E                     	;# 
   239  001F                     	;# 
   240  0081                     	;# 
   241  0085                     	;# 
   242  0086                     	;# 
   243  0087                     	;# 
   244  0088                     	;# 
   245  0089                     	;# 
   246  008C                     	;# 
   247  008D                     	;# 
   248  008E                     	;# 
   249  0091                     	;# 
   250  0092                     	;# 
   251  0093                     	;# 
   252  0094                     	;# 
   253  0098                     	;# 
   254  0099                     	;# 
   255  009C                     	;# 
   256  009D                     	;# 
   257  009E                     	;# 
   258  009F                     	;# 
   259  010C                     	;# 
   260  010D                     	;# 
   261  010E                     	;# 
   262  010F                     	;# 
   263  018C                     	;# 
   264  018D                     	;# 
   265                           
   266                           	psect	idataCOMMON
   267  0903                     __pidataCOMMON:
   268                           
   269                           ;initializer for _veloc
   270  0903  347B               	retlw	123
   271  0904  3402               	retlw	2
   272                           
   273                           	psect	idataBANK1
   274  0905                     __pidataBANK1:
   275                           
   276                           ;initializer for _em2
   277  0905  3401               	retlw	1
   278  0906  3400               	retlw	0
   279                           
   280                           ;initializer for _em1
   281  0907  3401               	retlw	1
   282  0908  3400               	retlw	0
   283                           
   284                           ;initializer for _old_Veloc
   285  0909  347B               	retlw	123
   286  090A  3402               	retlw	2
   287                           
   288                           	psect	strings
   289  0800                     __pstrings:
   290  0800                     stringtab:
   291  0800                     __stringtab:
   292                           
   293                           ;	String table - string pointers are 1 byte each
   294  0800  1BFF               	btfsc	btemp+1,7
   295  0801  280A               	ljmp	stringcode
   296  0802  1383               	bcf	3,7
   297  0803  187F               	btfsc	btemp+1,0
   298  0804  1783               	bsf	3,7
   299  0805  0800               	movf	0,w
   300  0806  0A84               	incf	4,f
   301  0807  1903               	skipnz
   302  0808  0AFF               	incf	btemp+1,f
   303  0809  0008               	return
   304  080A                     stringcode:
   305  080A                     stringdir:
   306  080A  3008               	movlw	high stringdir
   307  080B  008A               	movwf	10
   308  080C  0804               	movf	4,w
   309  080D  0A84               	incf	4,f
   310  080E  0782               	addwf	2,f
   311  080F                     __stringbase:
   312  080F  3400               	retlw	0
   313  0810                     __end_of__stringtab:
   314  0810                     _dpowers:
   315  0810  3401               	retlw	1
   316  0811  3400               	retlw	0
   317  0812  340A               	retlw	10
   318  0813  3400               	retlw	0
   319  0814  3464               	retlw	100
   320  0815  3400               	retlw	0
   321  0816  34E8               	retlw	232
   322  0817  3403               	retlw	3
   323  0818  3410               	retlw	16
   324  0819  3427               	retlw	39
   325  081A                     __end_of_dpowers:
   326  0013                     _SSPBUF	set	19
   327  0014                     _SSPCON	set	20
   328  0006                     _PORTBbits	set	6
   329  001A                     _RCREG	set	26
   330  0010                     _T1CON	set	16
   331  000B                     _INTCONbits	set	11
   332  001E                     _ADRESH	set	30
   333  0007                     _PORTC	set	7
   334  0007                     _PORTCbits	set	7
   335  000E                     _TMR1L	set	14
   336  000F                     _TMR1H	set	15
   337  0015                     _CCPR1L	set	21
   338  0017                     _CCP1CONbits	set	23
   339  0012                     _T2CONbits	set	18
   340  001F                     _ADCON0	set	31
   341  0018                     _RCSTAbits	set	24
   342  000C                     _PIR1bits	set	12
   343  0019                     _TXREG	set	25
   344  0063                     _SSPIF	set	99
   345  00FA                     _GO_nDONE	set	250
   346  0059                     _INTF	set	89
   347  0065                     _RCIF	set	101
   348  005A                     _TMR0IF	set	90
   349  00BC                     _CCP1Y	set	188
   350  00BD                     _CCP1X	set	189
   351  0064                     _TXIF	set	100
   352  0094                     _SSPSTAT	set	148
   353  0093                     _SSPADD	set	147
   354  0091                     _SSPCON2	set	145
   355  0081                     _OPTION_REG	set	129
   356  0087                     _TRISCbits	set	135
   357  0086                     _TRISBbits	set	134
   358  009E                     _ADRESL	set	158
   359  0092                     _PR2	set	146
   360  009F                     _ADCON1	set	159
   361  0099                     _SPBRG	set	153
   362  0098                     _TXSTAbits	set	152
   363  048C                     _ACKEN	set	1164
   364  048D                     _ACKDT	set	1165
   365  048B                     _RCEN	set	1163
   366  048E                     _ACKSTAT	set	1166
   367  048A                     _PEN	set	1162
   368  0489                     _RSEN	set	1161
   369  0488                     _SEN	set	1160
   370  081A                     STR_1:
   371  081A  340D               	retlw	13
   372  081B  340A               	retlw	10
   373  081C  347B               	retlw	123	;'{'
   374  081D  340A               	retlw	10
   375  081E  3422               	retlw	34	;'"'
   376  081F  3453               	retlw	83	;'S'
   377  0820  3469               	retlw	105	;'i'
   378  0821  3474               	retlw	116	;'t'
   379  0822  3422               	retlw	34	;'"'
   380  0823  343A               	retlw	58	;':'
   381  0824  3422               	retlw	34	;'"'
   382  0825  3425               	retlw	37	;'%'
   383  0826  3473               	retlw	115	;'s'
   384  0827  3422               	retlw	34	;'"'
   385  0828  342C               	retlw	44	;','
   386  0829  340A               	retlw	10
   387  082A  3422               	retlw	34	;'"'
   388  082B  3454               	retlw	84	;'T'
   389  082C  3465               	retlw	101	;'e'
   390  082D  346D               	retlw	109	;'m'
   391  082E  3470               	retlw	112	;'p'
   392  082F  3422               	retlw	34	;'"'
   393  0830  343A               	retlw	58	;':'
   394  0831  3425               	retlw	37	;'%'
   395  0832  3464               	retlw	100	;'d'
   396  0833  342C               	retlw	44	;','
   397  0834  340A               	retlw	10
   398  0835  3422               	retlw	34	;'"'
   399  0836  3448               	retlw	72	;'H'
   400  0837  3475               	retlw	117	;'u'
   401  0838  346D               	retlw	109	;'m'
   402  0839  3422               	retlw	34	;'"'
   403  083A  343A               	retlw	58	;':'
   404  083B  3425               	retlw	37	;'%'
   405  083C  3464               	retlw	100	;'d'
   406  083D  342C               	retlw	44	;','
   407  083E  340A               	retlw	10
   408  083F  3422               	retlw	34	;'"'
   409  0840  3456               	retlw	86	;'V'
   410  0841  3465               	retlw	101	;'e'
   411  0842  346C               	retlw	108	;'l'
   412  0843  3422               	retlw	34	;'"'
   413  0844  343A               	retlw	58	;':'
   414  0845  3425               	retlw	37	;'%'
   415  0846  3464               	retlw	100	;'d'
   416  0847  340A               	retlw	10
   417  0848  347D               	retlw	125	;'}'
   418  0849  340D               	retlw	13
   419  084A  340A               	retlw	10
   420  084B  3400               	retlw	0
   421  084C                     STR_7:
   422  084C  3428               	retlw	40	;'('
   423  084D  346E               	retlw	110	;'n'
   424  084E  3475               	retlw	117	;'u'
   425  084F  346C               	retlw	108	;'l'
   426  0850  346C               	retlw	108	;'l'
   427  0851  3429               	retlw	41	;')'
   428  0852  3400               	retlw	0
   429  0853                     STR_2:
   430  0853  3450               	retlw	80	;'P'
   431  0854  3449               	retlw	73	;'I'
   432  0855  3443               	retlw	67	;'C'
   433  0856  3420               	retlw	32	;' '
   434  0857  344F               	retlw	79	;'O'
   435  0858  344E               	retlw	78	;'N'
   436  0859  3400               	retlw	0
   437  085A                     STR_6:
   438  085A  3445               	retlw	69	;'E'
   439  085B  344D               	retlw	77	;'M'
   440  085C  3431               	retlw	49	;'1'
   441  085D  3400               	retlw	0
   442  085E                     STR_5:
   443  085E  3445               	retlw	69	;'E'
   444  085F  344D               	retlw	77	;'M'
   445  0860  3432               	retlw	50	;'2'
   446  0861  3400               	retlw	0
   447  0862                     STR_3:
   448  0862  3445               	retlw	69	;'E'
   449  0863  3456               	retlw	86	;'V'
   450  0864  3400               	retlw	0
   451  0865                     STR_4:
   452  0865  3448               	retlw	72	;'H'
   453  0866  3400               	retlw	0
   454                           
   455                           	psect	cinit
   456  000F                     start_initialization:	
   457                           ; #config settings
   458                           
   459  000F                     __initialization:
   460                           
   461                           ; Initialize objects allocated to BANK1
   462  000F  1683               	bsf	3,5	;RP0=1, select bank1
   463  0010  1303               	bcf	3,6	;RP1=0, select bank1
   464  0011  120A  158A  2105  120A  118A  	fcall	__pidataBANK1	;fetch initializer
   465  0016  00C0               	movwf	__pdataBANK1& (0+127)
   466  0017  120A  158A  2106  120A  118A  	fcall	__pidataBANK1+1	;fetch initializer
   467  001C  00C1               	movwf	(__pdataBANK1+1)& (0+127)
   468  001D  120A  158A  2107  120A  118A  	fcall	__pidataBANK1+2	;fetch initializer
   469  0022  00C2               	movwf	(__pdataBANK1+2)& (0+127)
   470  0023  120A  158A  2108  120A  118A  	fcall	__pidataBANK1+3	;fetch initializer
   471  0028  00C3               	movwf	(__pdataBANK1+3)& (0+127)
   472  0029  120A  158A  2109  120A  118A  	fcall	__pidataBANK1+4	;fetch initializer
   473  002E  00C4               	movwf	(__pdataBANK1+4)& (0+127)
   474  002F  120A  158A  210A  120A  118A  	fcall	__pidataBANK1+5	;fetch initializer
   475  0034  00C5               	movwf	(__pdataBANK1+5)& (0+127)
   476                           
   477                           ; Initialize objects allocated to COMMON
   478  0035  120A  158A  2103  120A  118A  	fcall	__pidataCOMMON	;fetch initializer
   479  003A  00F8               	movwf	__pdataCOMMON& (0+127)
   480  003B  120A  158A  2104  120A  118A  	fcall	__pidataCOMMON+1	;fetch initializer
   481  0040  00F9               	movwf	(__pdataCOMMON+1)& (0+127)
   482                           
   483                           ; Clear objects allocated to BANK1
   484  0041  01B6               	clrf	__pbssBANK1& (0+127)
   485  0042  01B7               	clrf	(__pbssBANK1+1)& (0+127)
   486  0043  01B8               	clrf	(__pbssBANK1+2)& (0+127)
   487  0044  01B9               	clrf	(__pbssBANK1+3)& (0+127)
   488  0045  01BA               	clrf	(__pbssBANK1+4)& (0+127)
   489  0046  01BB               	clrf	(__pbssBANK1+5)& (0+127)
   490  0047  01BC               	clrf	(__pbssBANK1+6)& (0+127)
   491  0048  01BD               	clrf	(__pbssBANK1+7)& (0+127)
   492  0049  01BE               	clrf	(__pbssBANK1+8)& (0+127)
   493  004A  01BF               	clrf	(__pbssBANK1+9)& (0+127)
   494                           
   495                           ; Clear objects allocated to COMMON
   496  004B  01F6               	clrf	__pbssCOMMON& (0+127)
   497  004C  01F7               	clrf	(__pbssCOMMON+1)& (0+127)
   498  004D                     end_of_initialization:	
   499                           ;End of C runtime variable initialization code
   500                           
   501  004D                     __end_of__initialization:
   502  004D  0183               	clrf	3
   503  004E  120A  118A  2BB2   	ljmp	_main	;jump to C main() function
   504                           
   505                           	psect	bssCOMMON
   506  0076                     __pbssCOMMON:
   507  0076                     _start:
   508  0076                     	ds	2
   509                           
   510                           	psect	dataCOMMON
   511  0078                     __pdataCOMMON:
   512  0078                     _veloc:
   513  0078                     	ds	2
   514                           
   515                           	psect	bssBANK1
   516  00B6                     __pbssBANK1:
   517  00B6                     _count:
   518  00B6                     	ds	4
   519  00BA                     _received:
   520  00BA                     	ds	2
   521  00BC                     _s:
   522  00BC                     	ds	2
   523  00BE                     _send:
   524  00BE                     	ds	2
   525                           
   526                           	psect	dataBANK1
   527  00C0                     __pdataBANK1:
   528  00C0                     _em2:
   529  00C0                     	ds	2
   530  00C2                     _em1:
   531  00C2                     	ds	2
   532  00C4                     _old_Veloc:
   533  00C4                     	ds	2
   534                           
   535                           	psect	cstackBANK3
   536  0190                     __pcstackBANK3:
   537  0190                     sendMessage@temp_buf:
   538                           
   539                           ; 90 bytes @ 0x0
   540  0190                     	ds	90
   541                           
   542                           	psect	cstackBANK1
   543  00A0                     __pcstackBANK1:
   544  00A0                     ??_main:
   545                           
   546                           ; 1 bytes @ 0x0
   547  00A0                     	ds	3
   548  00A3                     main@teste:
   549                           
   550                           ; 6 bytes @ 0x3
   551  00A3                     	ds	6
   552  00A9                     main@param_temp:
   553                           
   554                           ; 2 bytes @ 0x9
   555  00A9                     	ds	2
   556  00AB                     main@param_vel:
   557                           
   558                           ; 2 bytes @ 0xB
   559  00AB                     	ds	2
   560  00AD                     main@param_hum:
   561                           
   562                           ; 2 bytes @ 0xD
   563  00AD                     	ds	2
   564  00AF                     main@rajada:
   565                           
   566                           ; 2 bytes @ 0xF
   567  00AF                     	ds	2
   568  00B1                     main@temp:
   569                           
   570                           ; 2 bytes @ 0x11
   571  00B1                     	ds	2
   572  00B3                     main@name:
   573                           
   574                           ; 1 bytes @ 0x13
   575  00B3                     	ds	1
   576  00B4                     main@hum:
   577                           
   578                           ; 2 bytes @ 0x14
   579  00B4                     	ds	2
   580                           
   581                           	psect	cstackCOMMON
   582  0070                     __pcstackCOMMON:
   583  0070                     ?_uartSendChar:
   584  0070                     ?_usartSetup:	
   585                           ; 1 bytes @ 0x0
   586                           
   587  0070                     ?_adcSetup:	
   588                           ; 1 bytes @ 0x0
   589                           
   590  0070                     ?_PWMSetup:	
   591                           ; 1 bytes @ 0x0
   592                           
   593  0070                     ?_timer:	
   594                           ; 1 bytes @ 0x0
   595                           
   596  0070                     ??_timer:	
   597                           ; 1 bytes @ 0x0
   598                           
   599  0070                     ?_buzzer:	
   600                           ; 1 bytes @ 0x0
   601                           
   602  0070                     ?_i2c_Wait:	
   603                           ; 1 bytes @ 0x0
   604                           
   605  0070                     ?_i2c_Start:	
   606                           ; 1 bytes @ 0x0
   607                           
   608  0070                     ?_i2c_Restart:	
   609                           ; 1 bytes @ 0x0
   610                           
   611  0070                     ?_i2c_Stop:	
   612                           ; 1 bytes @ 0x0
   613                           
   614  0070                     ?_i2c_Write:	
   615                           ; 1 bytes @ 0x0
   616                           
   617  0070                     ?_i2c_Read:	
   618                           ; 1 bytes @ 0x0
   619                           
   620  0070                     ?_i2c_ACK:	
   621                           ; 1 bytes @ 0x0
   622                           
   623  0070                     ?_main:	
   624                           ; 1 bytes @ 0x0
   625                           
   626                           
   627                           ; 2 bytes @ 0x0
   628  0070                     	ds	2
   629  0072                     timer@countTimer1:
   630                           
   631                           ; 2 bytes @ 0x2
   632  0072                     	ds	2
   633  0074                     ??_uartSendChar:
   634  0074                     ??_usartSetup:	
   635                           ; 1 bytes @ 0x4
   636                           
   637  0074                     ??_adcSetup:	
   638                           ; 1 bytes @ 0x4
   639                           
   640  0074                     ??_PWMSetup:	
   641                           ; 1 bytes @ 0x4
   642                           
   643  0074                     ??_i2c_Wait:	
   644                           ; 1 bytes @ 0x4
   645                           
   646  0074                     ??_i2c_Start:	
   647                           ; 1 bytes @ 0x4
   648                           
   649  0074                     ??_i2c_Restart:	
   650                           ; 1 bytes @ 0x4
   651                           
   652  0074                     ??_i2c_Stop:	
   653                           ; 1 bytes @ 0x4
   654                           
   655  0074                     ??_i2c_Write:	
   656                           ; 1 bytes @ 0x4
   657                           
   658  0074                     ??_i2c_Read:	
   659                           ; 1 bytes @ 0x4
   660                           
   661  0074                     ??_i2c_ACK:	
   662                           ; 1 bytes @ 0x4
   663                           
   664  0074                     ??___lldiv:	
   665                           ; 1 bytes @ 0x4
   666                           
   667  0074                     ??___lwdiv:	
   668                           ; 1 bytes @ 0x4
   669                           
   670  0074                     ??___lwmod:	
   671                           ; 1 bytes @ 0x4
   672                           
   673  0074                     ?_strlen:	
   674                           ; 1 bytes @ 0x4
   675                           
   676  0074                     ?__Umul8_16:	
   677                           ; 2 bytes @ 0x4
   678                           
   679  0074                     ?_valuefromSensor:	
   680                           ; 2 bytes @ 0x4
   681                           
   682  0074                     uartSendChar@data:	
   683                           ; 2 bytes @ 0x4
   684                           
   685  0074                     i2c_Write@data:	
   686                           ; 1 bytes @ 0x4
   687                           
   688  0074                     ___lwmod@counter:	
   689                           ; 1 bytes @ 0x4
   690                           
   691  0074                     __Umul8_16@multiplicand:	
   692                           ; 1 bytes @ 0x4
   693                           
   694  0074                     valuefromSensor@channel:	
   695                           ; 1 bytes @ 0x4
   696                           
   697  0074                     strlen@s:	
   698                           ; 2 bytes @ 0x4
   699                           
   700                           
   701                           ; 2 bytes @ 0x4
   702  0074                     	ds	1
   703  0075                     ??_EEPROM_Read_Page:
   704                           
   705                           ; 1 bytes @ 0x5
   706  0075                     	ds	1
   707  0076                     ??_strlen:
   708  0076                     ??_EEPROM_Write_Page:	
   709                           ; 1 bytes @ 0x6
   710                           
   711  0076                     ??_sendMessage:	
   712                           ; 1 bytes @ 0x6
   713                           
   714                           
   715                           	psect	cstackBANK0
   716  0020                     __pcstackBANK0:	
   717                           ; 1 bytes @ 0x6
   718                           
   719  0020                     ?_EEPROM_Read_Page:
   720  0020                     ??__Umul8_16:	
   721                           ; 1 bytes @ 0x0
   722                           
   723  0020                     ?_uartSendString:	
   724                           ; 1 bytes @ 0x0
   725                           
   726  0020                     ??_buzzer:	
   727                           ; 1 bytes @ 0x0
   728                           
   729  0020                     ??_valuefromSensor:	
   730                           ; 1 bytes @ 0x0
   731                           
   732  0020                     ?___lwdiv:	
   733                           ; 1 bytes @ 0x0
   734                           
   735  0020                     ?___lldiv:	
   736                           ; 2 bytes @ 0x0
   737                           
   738  0020                     ?___xxtofl:	
   739                           ; 4 bytes @ 0x0
   740                           
   741  0020                     uartSendString@str:	
   742                           ; 4 bytes @ 0x0
   743                           
   744  0020                     EEPROM_Read_Page@add:	
   745                           ; 2 bytes @ 0x0
   746                           
   747  0020                     ___lwdiv@divisor:	
   748                           ; 2 bytes @ 0x0
   749                           
   750  0020                     strlen@cp:	
   751                           ; 2 bytes @ 0x0
   752                           
   753  0020                     ___lldiv@divisor:	
   754                           ; 2 bytes @ 0x0
   755                           
   756  0020                     ___xxtofl@val:	
   757                           ; 4 bytes @ 0x0
   758                           
   759                           
   760                           ; 4 bytes @ 0x0
   761  0020                     	ds	2
   762  0022                     ?_EEPROM_Write_Page:
   763  0022                     ??_uartSendString:	
   764                           ; 1 bytes @ 0x2
   765                           
   766  0022                     EEPROM_Read_Page@data:	
   767                           ; 1 bytes @ 0x2
   768                           
   769  0022                     EEPROM_Write_Page@add:	
   770                           ; 1 bytes @ 0x2
   771                           
   772  0022                     ___lwdiv@dividend:	
   773                           ; 2 bytes @ 0x2
   774                           
   775  0022                     __Umul8_16@product:	
   776                           ; 2 bytes @ 0x2
   777                           
   778                           
   779                           ; 2 bytes @ 0x2
   780  0022                     	ds	1
   781  0023                     EEPROM_Read_Page@len:
   782                           
   783                           ; 2 bytes @ 0x3
   784  0023                     	ds	1
   785  0024                     ??___xxtofl:
   786  0024                     EEPROM_Write_Page@data:	
   787                           ; 1 bytes @ 0x4
   788                           
   789  0024                     ___lwdiv@counter:	
   790                           ; 1 bytes @ 0x4
   791                           
   792  0024                     __Umul8_16@word_mpld:	
   793                           ; 1 bytes @ 0x4
   794                           
   795  0024                     ___lldiv@dividend:	
   796                           ; 2 bytes @ 0x4
   797                           
   798                           
   799                           ; 4 bytes @ 0x4
   800  0024                     	ds	1
   801  0025                     uartSendString@i:
   802  0025                     EEPROM_Write_Page@len:	
   803                           ; 2 bytes @ 0x5
   804                           
   805  0025                     EEPROM_Read_Page@i:	
   806                           ; 2 bytes @ 0x5
   807                           
   808  0025                     ___lwdiv@quotient:	
   809                           ; 2 bytes @ 0x5
   810                           
   811                           
   812                           ; 2 bytes @ 0x5
   813  0025                     	ds	1
   814  0026                     __Umul8_16@multiplier:
   815                           
   816                           ; 1 bytes @ 0x6
   817  0026                     	ds	1
   818  0027                     ?___lwmod:
   819  0027                     EEPROM_Write_Page@i:	
   820                           ; 2 bytes @ 0x7
   821                           
   822  0027                     ___lwmod@divisor:	
   823                           ; 2 bytes @ 0x7
   824                           
   825                           
   826                           ; 2 bytes @ 0x7
   827  0027                     	ds	1
   828  0028                     ___xxtofl@sign:
   829  0028                     ___lldiv@quotient:	
   830                           ; 1 bytes @ 0x8
   831                           
   832                           
   833                           ; 4 bytes @ 0x8
   834  0028                     	ds	1
   835  0029                     ___xxtofl@exp:
   836  0029                     ___lwmod@dividend:	
   837                           ; 1 bytes @ 0x9
   838                           
   839                           
   840                           ; 2 bytes @ 0x9
   841  0029                     	ds	1
   842  002A                     ___xxtofl@arg:
   843                           
   844                           ; 4 bytes @ 0xA
   845  002A                     	ds	1
   846  002B                     ?_sprintf:
   847  002B                     sprintf@f:	
   848                           ; 2 bytes @ 0xB
   849                           
   850                           
   851                           ; 1 bytes @ 0xB
   852  002B                     	ds	1
   853  002C                     ___lldiv@counter:
   854                           
   855                           ; 1 bytes @ 0xC
   856  002C                     	ds	1
   857  002D                     ?_i2cSetup:
   858  002D                     i2cSetup@baud:	
   859                           ; 1 bytes @ 0xD
   860                           
   861                           
   862                           ; 4 bytes @ 0xD
   863  002D                     	ds	1
   864  002E                     ?___fldiv:
   865  002E                     ___fldiv@a:	
   866                           ; 4 bytes @ 0xE
   867                           
   868                           
   869                           ; 4 bytes @ 0xE
   870  002E                     	ds	3
   871  0031                     ??_i2cSetup:
   872                           
   873                           ; 1 bytes @ 0x11
   874  0031                     	ds	1
   875  0032                     ___fldiv@b:
   876                           
   877                           ; 4 bytes @ 0x12
   878  0032                     	ds	2
   879  0034                     ??_sprintf:
   880                           
   881                           ; 1 bytes @ 0x14
   882  0034                     	ds	2
   883  0036                     ??___fldiv:
   884                           
   885                           ; 1 bytes @ 0x16
   886  0036                     	ds	1
   887  0037                     sprintf@flag:
   888                           
   889                           ; 1 bytes @ 0x17
   890  0037                     	ds	1
   891  0038                     sprintf@prec:
   892                           
   893                           ; 1 bytes @ 0x18
   894  0038                     	ds	1
   895  0039                     sprintf@ap:
   896                           
   897                           ; 1 bytes @ 0x19
   898  0039                     	ds	1
   899  003A                     sprintf@cp:
   900                           
   901                           ; 2 bytes @ 0x1A
   902  003A                     	ds	1
   903  003B                     ___fldiv@rem:
   904                           
   905                           ; 4 bytes @ 0x1B
   906  003B                     	ds	1
   907  003C                     sprintf@val:
   908                           
   909                           ; 2 bytes @ 0x1C
   910  003C                     	ds	2
   911  003E                     sprintf@sp:
   912                           
   913                           ; 1 bytes @ 0x1E
   914  003E                     	ds	1
   915  003F                     sprintf@c:
   916  003F                     ___fldiv@sign:	
   917                           ; 1 bytes @ 0x1F
   918                           
   919                           
   920                           ; 1 bytes @ 0x1F
   921  003F                     	ds	1
   922  0040                     ?_sendMessage:
   923  0040                     sendMessage@temp:	
   924                           ; 1 bytes @ 0x20
   925                           
   926  0040                     ___fldiv@new_exp:	
   927                           ; 2 bytes @ 0x20
   928                           
   929                           
   930                           ; 2 bytes @ 0x20
   931  0040                     	ds	2
   932  0042                     sendMessage@humidade:
   933  0042                     ___fldiv@grs:	
   934                           ; 2 bytes @ 0x22
   935                           
   936                           
   937                           ; 4 bytes @ 0x22
   938  0042                     	ds	2
   939  0044                     sendMessage@velVent:
   940                           
   941                           ; 2 bytes @ 0x24
   942  0044                     	ds	2
   943  0046                     sendMessage@situation:
   944  0046                     ___fldiv@bexp:	
   945                           ; 1 bytes @ 0x26
   946                           
   947                           
   948                           ; 1 bytes @ 0x26
   949  0046                     	ds	1
   950  0047                     ___fldiv@aexp:
   951                           
   952                           ; 1 bytes @ 0x27
   953  0047                     	ds	1
   954  0048                     ?___flmul:
   955  0048                     ___flmul@b:	
   956                           ; 4 bytes @ 0x28
   957                           
   958                           
   959                           ; 4 bytes @ 0x28
   960  0048                     	ds	4
   961  004C                     ___flmul@a:
   962                           
   963                           ; 4 bytes @ 0x2C
   964  004C                     	ds	4
   965  0050                     ??___flmul:
   966                           
   967                           ; 1 bytes @ 0x30
   968  0050                     	ds	5
   969  0055                     ___flmul@sign:
   970                           
   971                           ; 1 bytes @ 0x35
   972  0055                     	ds	1
   973  0056                     ___flmul@aexp:
   974                           
   975                           ; 1 bytes @ 0x36
   976  0056                     	ds	1
   977  0057                     ___flmul@grs:
   978                           
   979                           ; 4 bytes @ 0x37
   980  0057                     	ds	4
   981  005B                     ___flmul@bexp:
   982                           
   983                           ; 1 bytes @ 0x3B
   984  005B                     	ds	1
   985  005C                     ___flmul@prod:
   986                           
   987                           ; 4 bytes @ 0x3C
   988  005C                     	ds	4
   989  0060                     ___flmul@temp:
   990                           
   991                           ; 2 bytes @ 0x40
   992  0060                     	ds	2
   993  0062                     ?___fltol:
   994  0062                     ___fltol@f1:	
   995                           ; 4 bytes @ 0x42
   996                           
   997                           
   998                           ; 4 bytes @ 0x42
   999  0062                     	ds	4
  1000  0066                     ??___fltol:
  1001                           
  1002                           ; 1 bytes @ 0x46
  1003  0066                     	ds	4
  1004  006A                     ___fltol@sign1:
  1005                           
  1006                           ; 1 bytes @ 0x4A
  1007  006A                     	ds	1
  1008  006B                     ___fltol@exp1:
  1009                           
  1010                           ; 1 bytes @ 0x4B
  1011  006B                     	ds	1
  1012  006C                     ?_PWMDuty:
  1013  006C                     PWMDuty@duty:	
  1014                           ; 1 bytes @ 0x4C
  1015                           
  1016                           
  1017                           ; 2 bytes @ 0x4C
  1018  006C                     	ds	2
  1019  006E                     ??_PWMDuty:
  1020                           
  1021                           ; 1 bytes @ 0x4E
  1022  006E                     	ds	2
  1023                           
  1024                           	psect	maintext
  1025  03B2                     __pmaintext:	
  1026 ;;
  1027 ;;Main: autosize = 0, tempsize = 3, incstack = 0, save=0
  1028 ;;
  1029 ;; *************** function _main *****************
  1030 ;; Defined at:
  1031 ;;		line 159 in file "main.c"
  1032 ;; Parameters:    Size  Location     Type
  1033 ;;		None
  1034 ;; Auto vars:     Size  Location     Type
  1035 ;;  name            1   19[BANK1 ] unsigned char 
  1036 ;;  hum             2   20[BANK1 ] int 
  1037 ;;  temp            2   17[BANK1 ] int 
  1038 ;;  teste           6    3[BANK1 ] unsigned char [6]
  1039 ;;  rajada          2   15[BANK1 ] int 
  1040 ;;  param_hum       2   13[BANK1 ] int 
  1041 ;;  param_vel       2   11[BANK1 ] int 
  1042 ;;  param_temp      2    9[BANK1 ] int 
  1043 ;; Return value:  Size  Location     Type
  1044 ;;                  2  153[None  ] int 
  1045 ;; Registers used:
  1046 ;;		wreg, fsr0l, fsr0h, status,2, status,0, btemp+1, pclath, cstack
  1047 ;; Tracked objects:
  1048 ;;		On entry : B00/0
  1049 ;;		On exit  : 0/0
  1050 ;;		Unchanged: 0/0
  1051 ;; Data sizes:     COMMON   BANK0   BANK1   BANK3   BANK2
  1052 ;;      Params:         0       0       0       0       0
  1053 ;;      Locals:         0       0      19       0       0
  1054 ;;      Temps:          0       0       3       0       0
  1055 ;;      Totals:         0       0      22       0       0
  1056 ;;Total ram usage:       22 bytes
  1057 ;; Hardware stack levels required when called:    4
  1058 ;; This function calls:
  1059 ;;		_EEPROM_Read_Page
  1060 ;;		_EEPROM_Write_Page
  1061 ;;		_PWMDuty
  1062 ;;		_PWMSetup
  1063 ;;		_adcSetup
  1064 ;;		_buzzer
  1065 ;;		_i2cSetup
  1066 ;;		_sendMessage
  1067 ;;		_uartSendString
  1068 ;;		_usartSetup
  1069 ;;		_valuefromSensor
  1070 ;; This function is called by:
  1071 ;;		Startup code after reset
  1072 ;; This function uses a non-reentrant model
  1073 ;;
  1074                           
  1075                           
  1076                           ;psect for function _main
  1077  03B2                     _main:
  1078  03B2                     l3336:	
  1079                           ;incstack = 0
  1080                           ; Regs used in _main: [wreg-fsr0h+status,2+status,0+btemp+1+pclath+cstack]
  1081                           
  1082                           
  1083                           ;main.c: 163:     TRISBbits.TRISB1 = 1;
  1084  03B2  1683               	bsf	3,5	;RP0=1, select bank1
  1085  03B3  1303               	bcf	3,6	;RP1=0, select bank1
  1086  03B4  1486               	bsf	6,1	;volatile
  1087                           
  1088                           ;main.c: 164:     TRISBbits.TRISB3 = 1;
  1089  03B5  1586               	bsf	6,3	;volatile
  1090                           
  1091                           ;main.c: 166:     TRISCbits.TRISC0 = 1;
  1092  03B6  1407               	bsf	7,0	;volatile
  1093                           
  1094                           ;main.c: 167:     TRISCbits.TRISC2 = 0;
  1095  03B7  1107               	bcf	7,2	;volatile
  1096                           
  1097                           ;main.c: 168:     TRISCbits.TRISC1 = 0;
  1098  03B8  1087               	bcf	7,1	;volatile
  1099                           
  1100                           ;main.c: 169:     TRISCbits.TRISC5 = 0;
  1101  03B9  1287               	bcf	7,5	;volatile
  1102                           
  1103                           ;main.c: 170:     TRISCbits.TRISC6 = 1;
  1104  03BA  1707               	bsf	7,6	;volatile
  1105                           
  1106                           ;main.c: 171:     TRISCbits.TRISC7 = 1;
  1107  03BB  1787               	bsf	7,7	;volatile
  1108  03BC                     l3338:
  1109                           
  1110                           ;main.c: 173:     usartSetup();
  1111  03BC  120A  158A  2154  120A  118A  	fcall	_usartSetup
  1112  03C1                     l3340:
  1113                           
  1114                           ;main.c: 174:     INTCONbits.GIE = 1;
  1115  03C1  178B               	bsf	11,7	;volatile
  1116  03C2                     l3342:
  1117                           
  1118                           ;main.c: 175:     INTCONbits.INTE = 1;
  1119  03C2  160B               	bsf	11,4	;volatile
  1120  03C3                     l3344:
  1121                           
  1122                           ;main.c: 178:     if (start) {
  1123  03C3  0876               	movf	_start,w
  1124  03C4  0477               	iorwf	_start+1,w
  1125  03C5  1903               	btfsc	3,2
  1126  03C6  2BC8               	goto	u4511
  1127  03C7  2BC9               	goto	u4510
  1128  03C8                     u4511:
  1129  03C8  2E26               	goto	l154
  1130  03C9                     u4510:
  1131  03C9                     l3346:
  1132                           
  1133                           ;main.c: 180:         INTCONbits.PEIE = 1;
  1134  03C9  170B               	bsf	11,6	;volatile
  1135  03CA                     l3348:
  1136                           
  1137                           ;main.c: 182:         char teste[6];;main.c: 183:         i2cSetup(9600);
  1138  03CA  3000               	movlw	0
  1139  03CB  1283               	bcf	3,5	;RP0=0, select bank0
  1140  03CC  1303               	bcf	3,6	;RP1=0, select bank0
  1141  03CD  00B0               	movwf	i2cSetup@baud+3
  1142  03CE  3000               	movlw	0
  1143  03CF  00AF               	movwf	i2cSetup@baud+2
  1144  03D0  3025               	movlw	37
  1145  03D1  00AE               	movwf	i2cSetup@baud+1
  1146  03D2  3080               	movlw	128
  1147  03D3  00AD               	movwf	i2cSetup@baud
  1148  03D4  120A  158A  2212  120A  118A  	fcall	_i2cSetup
  1149  03D9                     l3350:
  1150                           
  1151                           ;main.c: 184:         EEPROM_Write_Page(0, "PIC ON");
  1152  03D9  3000               	movlw	0
  1153  03DA  1283               	bcf	3,5	;RP0=0, select bank0
  1154  03DB  1303               	bcf	3,6	;RP1=0, select bank0
  1155  03DC  00A2               	movwf	EEPROM_Write_Page@add
  1156  03DD  00A3               	movwf	EEPROM_Write_Page@add+1
  1157  03DE  3044               	movlw	(low ((STR_2-__stringbase)| (0+32768)))& (0+255)
  1158  03DF  00FF               	movwf	btemp+1
  1159  03E0  087F               	movf	btemp+1,w
  1160  03E1  00A4               	movwf	EEPROM_Write_Page@data
  1161  03E2  120A  158A  2345  120A  118A  	fcall	_EEPROM_Write_Page
  1162  03E7                     l3352:
  1163                           
  1164                           ;main.c: 185:         EEPROM_Read_Page(0, teste, 6);
  1165  03E7  3000               	movlw	0
  1166  03E8  1283               	bcf	3,5	;RP0=0, select bank0
  1167  03E9  1303               	bcf	3,6	;RP1=0, select bank0
  1168  03EA  00A0               	movwf	EEPROM_Read_Page@add
  1169  03EB  00A1               	movwf	EEPROM_Read_Page@add+1
  1170  03EC  30A3               	movlw	(low (main@teste| 0))& (0+255)
  1171  03ED  00FF               	movwf	btemp+1
  1172  03EE  087F               	movf	btemp+1,w
  1173  03EF  00A2               	movwf	EEPROM_Read_Page@data
  1174  03F0  3006               	movlw	6
  1175  03F1  00A3               	movwf	EEPROM_Read_Page@len
  1176  03F2  3000               	movlw	0
  1177  03F3  00A4               	movwf	EEPROM_Read_Page@len+1
  1178  03F4  120A  158A  240E  120A  118A  	fcall	_EEPROM_Read_Page
  1179  03F9                     l3354:
  1180                           
  1181                           ;main.c: 186:         uartSendString(teste);
  1182  03F9  30A3               	movlw	(low (main@teste| 0))& (0+255)
  1183  03FA  1283               	bcf	3,5	;RP0=0, select bank0
  1184  03FB  1303               	bcf	3,6	;RP1=0, select bank0
  1185  03FC  00A0               	movwf	uartSendString@str
  1186  03FD  3000               	movlw	0
  1187  03FE  00A1               	movwf	uartSendString@str+1
  1188  03FF  120A  158A  22BF  120A  118A  	fcall	_uartSendString
  1189  0404                     l3356:
  1190                           
  1191                           ;main.c: 189:         adcSetup();
  1192  0404  120A  158A  2126  120A  118A  	fcall	_adcSetup
  1193  0409                     l3358:
  1194                           
  1195                           ;main.c: 190:         PWMSetup();
  1196  0409  120A  158A  213B  120A  118A  	fcall	_PWMSetup
  1197  040E                     l3360:
  1198                           
  1199                           ;main.c: 191:         PORTCbits.RC2 = 1;
  1200  040E  1283               	bcf	3,5	;RP0=0, select bank0
  1201  040F  1303               	bcf	3,6	;RP1=0, select bank0
  1202  0410  1507               	bsf	7,2	;volatile
  1203  0411                     l3362:
  1204                           
  1205                           ;main.c: 193:         T1CON = 0b00001011;
  1206  0411  300B               	movlw	11
  1207  0412  0090               	movwf	16	;volatile
  1208  0413                     l3364:
  1209                           
  1210                           ;main.c: 195:         OPTION_REG = 0b00000001;
  1211  0413  3001               	movlw	1
  1212  0414  1683               	bsf	3,5	;RP0=1, select bank1
  1213  0415  1303               	bcf	3,6	;RP1=0, select bank1
  1214  0416  0081               	movwf	1	;volatile
  1215  0417                     l3366:
  1216                           
  1217                           ;main.c: 196:         INTCONbits.TMR0IE = 1;
  1218  0417  168B               	bsf	11,5	;volatile
  1219  0418                     l3368:
  1220                           
  1221                           ;main.c: 198:         int param_temp = 80, param_hum = 60, param_vel = 300, rajada = 300
      +                          ;
  1222  0418  3050               	movlw	80
  1223  0419  00A9               	movwf	main@param_temp^(0+128)
  1224  041A  3000               	movlw	0
  1225  041B  00AA               	movwf	(main@param_temp^(0+128)+1)
  1226  041C                     l3370:
  1227  041C  303C               	movlw	60
  1228  041D  00AD               	movwf	main@param_hum^(0+128)
  1229  041E  3000               	movlw	0
  1230  041F  00AE               	movwf	(main@param_hum^(0+128)+1)
  1231  0420                     l3372:
  1232  0420  302C               	movlw	44
  1233  0421  00AB               	movwf	main@param_vel^(0+128)
  1234  0422  3001               	movlw	1
  1235  0423  00AC               	movwf	(main@param_vel^(0+128)+1)
  1236  0424                     l3374:
  1237  0424  302C               	movlw	44
  1238  0425  00AF               	movwf	main@rajada^(0+128)
  1239  0426  3001               	movlw	1
  1240  0427  00B0               	movwf	(main@rajada^(0+128)+1)
  1241                           
  1242                           ;main.c: 201:         while (start) {
  1243  0428  2E20               	goto	l3472
  1244  0429                     l3376:
  1245                           
  1246                           ;main.c: 203:             int temp = valuefromSensor(2);
  1247  0429  3002               	movlw	2
  1248  042A  00F4               	movwf	valuefromSensor@channel
  1249  042B  3000               	movlw	0
  1250  042C  00F5               	movwf	valuefromSensor@channel+1
  1251  042D  120A  158A  21A6  120A  118A  	fcall	_valuefromSensor
  1252  0432  0875               	movf	?_valuefromSensor+1,w
  1253  0433  1683               	bsf	3,5	;RP0=1, select bank1
  1254  0434  1303               	bcf	3,6	;RP1=0, select bank1
  1255  0435  00B2               	movwf	(main@temp+1)^(0+128)
  1256  0436  0874               	movf	?_valuefromSensor,w
  1257  0437  00B1               	movwf	main@temp^(0+128)
  1258                           
  1259                           ;main.c: 204:             int hum = valuefromSensor(1);
  1260  0438  3001               	movlw	1
  1261  0439  00F4               	movwf	valuefromSensor@channel
  1262  043A  3000               	movlw	0
  1263  043B  00F5               	movwf	valuefromSensor@channel+1
  1264  043C  120A  158A  21A6  120A  118A  	fcall	_valuefromSensor
  1265  0441  0875               	movf	?_valuefromSensor+1,w
  1266  0442  1683               	bsf	3,5	;RP0=1, select bank1
  1267  0443  1303               	bcf	3,6	;RP1=0, select bank1
  1268  0444  00B5               	movwf	(main@hum+1)^(0+128)
  1269  0445  0874               	movf	?_valuefromSensor,w
  1270  0446  00B4               	movwf	main@hum^(0+128)
  1271                           
  1272                           ;main.c: 206:             PWMDuty(valuefromSensor(0));
  1273  0447  3000               	movlw	0
  1274  0448  00F4               	movwf	valuefromSensor@channel
  1275  0449  00F5               	movwf	valuefromSensor@channel+1
  1276  044A  120A  158A  21A6  120A  118A  	fcall	_valuefromSensor
  1277  044F  0875               	movf	?_valuefromSensor+1,w
  1278  0450  1283               	bcf	3,5	;RP0=0, select bank0
  1279  0451  1303               	bcf	3,6	;RP1=0, select bank0
  1280  0452  00ED               	movwf	PWMDuty@duty+1
  1281  0453  0874               	movf	?_valuefromSensor,w
  1282  0454  00EC               	movwf	PWMDuty@duty
  1283  0455  120A  158A  24EC  120A  118A  	fcall	_PWMDuty
  1284  045A                     l3378:
  1285                           
  1286                           ;main.c: 209:             if (send) {
  1287  045A  1683               	bsf	3,5	;RP0=1, select bank1
  1288  045B  1303               	bcf	3,6	;RP1=0, select bank1
  1289  045C  083E               	movf	_send^(0+128),w
  1290  045D  043F               	iorwf	(_send+1)^(0+128),w
  1291  045E  1903               	btfsc	3,2
  1292  045F  2C61               	goto	u4521
  1293  0460  2C62               	goto	u4520
  1294  0461                     u4521:
  1295  0461  2C89               	goto	l3384
  1296  0462                     u4520:
  1297  0462                     l3380:
  1298                           
  1299                           ;main.c: 211:                 sendMessage(temp, hum, veloc, "EV");
  1300  0462  0832               	movf	(main@temp+1)^(0+128),w
  1301  0463  1283               	bcf	3,5	;RP0=0, select bank0
  1302  0464  1303               	bcf	3,6	;RP1=0, select bank0
  1303  0465  00C1               	movwf	sendMessage@temp+1
  1304  0466  1683               	bsf	3,5	;RP0=1, select bank1
  1305  0467  1303               	bcf	3,6	;RP1=0, select bank1
  1306  0468  0831               	movf	main@temp^(0+128),w
  1307  0469  1283               	bcf	3,5	;RP0=0, select bank0
  1308  046A  1303               	bcf	3,6	;RP1=0, select bank0
  1309  046B  00C0               	movwf	sendMessage@temp
  1310  046C  1683               	bsf	3,5	;RP0=1, select bank1
  1311  046D  1303               	bcf	3,6	;RP1=0, select bank1
  1312  046E  0835               	movf	(main@hum+1)^(0+128),w
  1313  046F  1283               	bcf	3,5	;RP0=0, select bank0
  1314  0470  1303               	bcf	3,6	;RP1=0, select bank0
  1315  0471  00C3               	movwf	sendMessage@humidade+1
  1316  0472  1683               	bsf	3,5	;RP0=1, select bank1
  1317  0473  1303               	bcf	3,6	;RP1=0, select bank1
  1318  0474  0834               	movf	main@hum^(0+128),w
  1319  0475  1283               	bcf	3,5	;RP0=0, select bank0
  1320  0476  1303               	bcf	3,6	;RP1=0, select bank0
  1321  0477  00C2               	movwf	sendMessage@humidade
  1322  0478  0879               	movf	_veloc+1,w
  1323  0479  00C5               	movwf	sendMessage@velVent+1
  1324  047A  0878               	movf	_veloc,w
  1325  047B  00C4               	movwf	sendMessage@velVent
  1326  047C  3053               	movlw	(low ((STR_3-__stringbase)| (0+32768)))& (0+255)
  1327  047D  00FF               	movwf	btemp+1
  1328  047E  087F               	movf	btemp+1,w
  1329  047F  00C6               	movwf	sendMessage@situation
  1330  0480  120A  158A  224A  120A  118A  	fcall	_sendMessage
  1331  0485                     l3382:
  1332                           
  1333                           ;main.c: 212:                 send = 0;
  1334  0485  1683               	bsf	3,5	;RP0=1, select bank1
  1335  0486  1303               	bcf	3,6	;RP1=0, select bank1
  1336  0487  01BE               	clrf	_send^(0+128)
  1337  0488  01BF               	clrf	(_send+1)^(0+128)
  1338  0489                     l3384:
  1339                           
  1340                           ;main.c: 214:             if (received) {
  1341  0489  083A               	movf	_received^(0+128),w
  1342  048A  043B               	iorwf	(_received+1)^(0+128),w
  1343  048B  1903               	btfsc	3,2
  1344  048C  2C8E               	goto	u4531
  1345  048D  2C8F               	goto	u4530
  1346  048E                     u4531:
  1347  048E  2D04               	goto	l3428
  1348  048F                     u4530:
  1349  048F                     l3386:
  1350                           
  1351                           ;main.c: 215:                 char name = RCREG;
  1352  048F  1283               	bcf	3,5	;RP0=0, select bank0
  1353  0490  1303               	bcf	3,6	;RP1=0, select bank0
  1354  0491  081A               	movf	26,w	;volatile
  1355  0492  00FF               	movwf	btemp+1
  1356  0493  087F               	movf	btemp+1,w
  1357  0494  1683               	bsf	3,5	;RP0=1, select bank1
  1358  0495  1303               	bcf	3,6	;RP1=0, select bank1
  1359  0496  00B3               	movwf	main@name^(0+128)
  1360  0497                     l3388:
  1361                           
  1362                           ;main.c: 216:                 if (name == 'h') {
  1363  0497  3068               	movlw	104
  1364  0498  0633               	xorwf	main@name^(0+128),w
  1365  0499  1D03               	btfss	3,2
  1366  049A  2C9C               	goto	u4541
  1367  049B  2C9D               	goto	u4540
  1368  049C                     u4541:
  1369  049C  2CC8               	goto	l3396
  1370  049D                     u4540:
  1371  049D                     l3390:
  1372                           
  1373                           ;main.c: 217:                     sendMessage(temp, hum, veloc, "H");
  1374  049D  0832               	movf	(main@temp+1)^(0+128),w
  1375  049E  1283               	bcf	3,5	;RP0=0, select bank0
  1376  049F  1303               	bcf	3,6	;RP1=0, select bank0
  1377  04A0  00C1               	movwf	sendMessage@temp+1
  1378  04A1  1683               	bsf	3,5	;RP0=1, select bank1
  1379  04A2  1303               	bcf	3,6	;RP1=0, select bank1
  1380  04A3  0831               	movf	main@temp^(0+128),w
  1381  04A4  1283               	bcf	3,5	;RP0=0, select bank0
  1382  04A5  1303               	bcf	3,6	;RP1=0, select bank0
  1383  04A6  00C0               	movwf	sendMessage@temp
  1384  04A7  1683               	bsf	3,5	;RP0=1, select bank1
  1385  04A8  1303               	bcf	3,6	;RP1=0, select bank1
  1386  04A9  0835               	movf	(main@hum+1)^(0+128),w
  1387  04AA  1283               	bcf	3,5	;RP0=0, select bank0
  1388  04AB  1303               	bcf	3,6	;RP1=0, select bank0
  1389  04AC  00C3               	movwf	sendMessage@humidade+1
  1390  04AD  1683               	bsf	3,5	;RP0=1, select bank1
  1391  04AE  1303               	bcf	3,6	;RP1=0, select bank1
  1392  04AF  0834               	movf	main@hum^(0+128),w
  1393  04B0  1283               	bcf	3,5	;RP0=0, select bank0
  1394  04B1  1303               	bcf	3,6	;RP1=0, select bank0
  1395  04B2  00C2               	movwf	sendMessage@humidade
  1396  04B3  0879               	movf	_veloc+1,w
  1397  04B4  00C5               	movwf	sendMessage@velVent+1
  1398  04B5  0878               	movf	_veloc,w
  1399  04B6  00C4               	movwf	sendMessage@velVent
  1400  04B7  3056               	movlw	(low ((STR_4-__stringbase)| (0+32768)))& (0+255)
  1401  04B8  00FF               	movwf	btemp+1
  1402  04B9  087F               	movf	btemp+1,w
  1403  04BA  00C6               	movwf	sendMessage@situation
  1404  04BB  120A  158A  224A  120A  118A  	fcall	_sendMessage
  1405  04C0                     l3392:
  1406                           
  1407                           ;main.c: 218:                     received = 0;
  1408  04C0  1683               	bsf	3,5	;RP0=1, select bank1
  1409  04C1  1303               	bcf	3,6	;RP1=0, select bank1
  1410  04C2  01BA               	clrf	_received^(0+128)
  1411  04C3  01BB               	clrf	(_received+1)^(0+128)
  1412  04C4                     l3394:
  1413                           
  1414                           ;main.c: 219:                     RCIF = 0;
  1415  04C4  1283               	bcf	3,5	;RP0=0, select bank0
  1416  04C5  1303               	bcf	3,6	;RP1=0, select bank0
  1417  04C6  128C               	bcf	12,5	;volatile
  1418                           
  1419                           ;main.c: 220:                 } else if (name == 'A') {
  1420  04C7  2D04               	goto	l3428
  1421  04C8                     l3396:
  1422  04C8  3041               	movlw	65
  1423  04C9  0633               	xorwf	main@name^(0+128),w
  1424  04CA  1D03               	btfss	3,2
  1425  04CB  2CCD               	goto	u4551
  1426  04CC  2CCE               	goto	u4550
  1427  04CD                     u4551:
  1428  04CD  2CDB               	goto	l3404
  1429  04CE                     u4550:
  1430  04CE                     l3398:
  1431                           
  1432                           ;main.c: 221:                     param_temp = 60;
  1433  04CE  303C               	movlw	60
  1434  04CF  00A9               	movwf	main@param_temp^(0+128)
  1435  04D0  3000               	movlw	0
  1436  04D1  00AA               	movwf	(main@param_temp^(0+128)+1)
  1437                           
  1438                           ;main.c: 222:                     param_hum = 30;
  1439  04D2  301E               	movlw	30
  1440  04D3  00AD               	movwf	main@param_hum^(0+128)
  1441  04D4  3000               	movlw	0
  1442  04D5  00AE               	movwf	(main@param_hum^(0+128)+1)
  1443                           
  1444                           ;main.c: 223:                     param_vel = 150;
  1445  04D6  3096               	movlw	150
  1446  04D7  00AB               	movwf	main@param_vel^(0+128)
  1447  04D8  3000               	movlw	0
  1448  04D9  00AC               	movwf	(main@param_vel^(0+128)+1)
  1449  04DA  2CC0               	goto	l3392
  1450  04DB                     l3404:
  1451  04DB  3061               	movlw	97
  1452  04DC  0633               	xorwf	main@name^(0+128),w
  1453  04DD  1D03               	btfss	3,2
  1454  04DE  2CE0               	goto	u4561
  1455  04DF  2CE1               	goto	u4560
  1456  04E0                     u4561:
  1457  04E0  2CEE               	goto	l3412
  1458  04E1                     u4560:
  1459  04E1                     l3406:
  1460                           
  1461                           ;main.c: 227:                     param_temp = 100;
  1462  04E1  3064               	movlw	100
  1463  04E2  00A9               	movwf	main@param_temp^(0+128)
  1464  04E3  3000               	movlw	0
  1465  04E4  00AA               	movwf	(main@param_temp^(0+128)+1)
  1466                           
  1467                           ;main.c: 228:                     param_hum = 300;
  1468  04E5  302C               	movlw	44
  1469  04E6  00AD               	movwf	main@param_hum^(0+128)
  1470  04E7  3001               	movlw	1
  1471  04E8  00AE               	movwf	(main@param_hum^(0+128)+1)
  1472                           
  1473                           ;main.c: 229:                     param_vel = 400;
  1474  04E9  3090               	movlw	144
  1475  04EA  00AB               	movwf	main@param_vel^(0+128)
  1476  04EB  3001               	movlw	1
  1477  04EC  00AC               	movwf	(main@param_vel^(0+128)+1)
  1478  04ED  2CC0               	goto	l3392
  1479  04EE                     l3412:
  1480  04EE  3042               	movlw	66
  1481  04EF  0633               	xorwf	main@name^(0+128),w
  1482  04F0  1D03               	btfss	3,2
  1483  04F1  2CF3               	goto	u4571
  1484  04F2  2CF4               	goto	u4570
  1485  04F3                     u4571:
  1486  04F3  2CF9               	goto	l3420
  1487  04F4                     u4570:
  1488  04F4                     l3414:
  1489                           
  1490                           ;main.c: 233:                     rajada = 200;
  1491  04F4  30C8               	movlw	200
  1492  04F5  00AF               	movwf	main@rajada^(0+128)
  1493  04F6  3000               	movlw	0
  1494  04F7  00B0               	movwf	(main@rajada^(0+128)+1)
  1495  04F8  2CC0               	goto	l3392
  1496  04F9                     l3420:
  1497  04F9  3062               	movlw	98
  1498  04FA  0633               	xorwf	main@name^(0+128),w
  1499  04FB  1D03               	btfss	3,2
  1500  04FC  2CFE               	goto	u4581
  1501  04FD  2CFF               	goto	u4580
  1502  04FE                     u4581:
  1503  04FE  2D04               	goto	l162
  1504  04FF                     u4580:
  1505  04FF                     l3422:
  1506                           
  1507                           ;main.c: 237:                     rajada = 400;
  1508  04FF  3090               	movlw	144
  1509  0500  00AF               	movwf	main@rajada^(0+128)
  1510  0501  3001               	movlw	1
  1511  0502  00B0               	movwf	(main@rajada^(0+128)+1)
  1512  0503  2CC0               	goto	l3392
  1513  0504                     l162:
  1514  0504                     l3428:
  1515                           
  1516                           ;main.c: 244:             if ((veloc - old_Veloc) >= rajada && em2 == 1) {
  1517  0504  1683               	bsf	3,5	;RP0=1, select bank1
  1518  0505  1303               	bcf	3,6	;RP1=0, select bank1
  1519  0506  0844               	movf	_old_Veloc^(0+128),w
  1520  0507  0278               	subwf	_veloc,w
  1521  0508  00A0               	movwf	??_main^(0+128)
  1522  0509  0845               	movf	(_old_Veloc+1)^(0+128),w
  1523  050A  1C03               	skipc
  1524  050B  0A45               	incf	(_old_Veloc+1)^(0+128),w
  1525  050C  0279               	subwf	_veloc+1,w
  1526  050D  00A1               	movwf	(??_main+1)^(0+128)
  1527  050E  0821               	movf	(??_main+1)^(0+128),w
  1528  050F  3A80               	xorlw	128
  1529  0510  00A2               	movwf	(??_main+2)^(0+128)
  1530  0511  0830               	movf	(main@rajada+1)^(0+128),w
  1531  0512  3A80               	xorlw	128
  1532  0513  0222               	subwf	(??_main+2)^(0+128),w
  1533  0514  1D03               	skipz
  1534  0515  2D18               	goto	u4595
  1535  0516  082F               	movf	main@rajada^(0+128),w
  1536  0517  0220               	subwf	??_main^(0+128),w
  1537  0518                     u4595:
  1538  0518  1C03               	skipc
  1539  0519  2D1B               	goto	u4591
  1540  051A  2D1C               	goto	u4590
  1541  051B                     u4591:
  1542  051B  2D51               	goto	l3438
  1543  051C                     u4590:
  1544  051C                     l3430:
  1545  051C  1683               	bsf	3,5	;RP0=1, select bank1
  1546  051D  1303               	bcf	3,6	;RP1=0, select bank1
  1547  051E  0340               	decf	_em2^(0+128),w
  1548  051F  0441               	iorwf	(_em2+1)^(0+128),w
  1549  0520  1D03               	btfss	3,2
  1550  0521  2D23               	goto	u4601
  1551  0522  2D24               	goto	u4600
  1552  0523                     u4601:
  1553  0523  2D51               	goto	l3438
  1554  0524                     u4600:
  1555  0524                     l3432:
  1556                           
  1557                           ;main.c: 245:                 sendMessage(temp, hum, veloc, "EM2");
  1558  0524  0832               	movf	(main@temp+1)^(0+128),w
  1559  0525  1283               	bcf	3,5	;RP0=0, select bank0
  1560  0526  1303               	bcf	3,6	;RP1=0, select bank0
  1561  0527  00C1               	movwf	sendMessage@temp+1
  1562  0528  1683               	bsf	3,5	;RP0=1, select bank1
  1563  0529  1303               	bcf	3,6	;RP1=0, select bank1
  1564  052A  0831               	movf	main@temp^(0+128),w
  1565  052B  1283               	bcf	3,5	;RP0=0, select bank0
  1566  052C  1303               	bcf	3,6	;RP1=0, select bank0
  1567  052D  00C0               	movwf	sendMessage@temp
  1568  052E  1683               	bsf	3,5	;RP0=1, select bank1
  1569  052F  1303               	bcf	3,6	;RP1=0, select bank1
  1570  0530  0835               	movf	(main@hum+1)^(0+128),w
  1571  0531  1283               	bcf	3,5	;RP0=0, select bank0
  1572  0532  1303               	bcf	3,6	;RP1=0, select bank0
  1573  0533  00C3               	movwf	sendMessage@humidade+1
  1574  0534  1683               	bsf	3,5	;RP0=1, select bank1
  1575  0535  1303               	bcf	3,6	;RP1=0, select bank1
  1576  0536  0834               	movf	main@hum^(0+128),w
  1577  0537  1283               	bcf	3,5	;RP0=0, select bank0
  1578  0538  1303               	bcf	3,6	;RP1=0, select bank0
  1579  0539  00C2               	movwf	sendMessage@humidade
  1580  053A  0879               	movf	_veloc+1,w
  1581  053B  00C5               	movwf	sendMessage@velVent+1
  1582  053C  0878               	movf	_veloc,w
  1583  053D  00C4               	movwf	sendMessage@velVent
  1584  053E  304F               	movlw	(low ((STR_5-__stringbase)| (0+32768)))& (0+255)
  1585  053F  00FF               	movwf	btemp+1
  1586  0540  087F               	movf	btemp+1,w
  1587  0541  00C6               	movwf	sendMessage@situation
  1588  0542  120A  158A  224A  120A  118A  	fcall	_sendMessage
  1589  0547                     l3434:
  1590                           
  1591                           ;main.c: 246:                 buzzer();
  1592  0547  120A  158A  2179  120A  118A  	fcall	_buzzer
  1593  054C                     l3436:
  1594                           
  1595                           ;main.c: 247:                 em2 = 0;
  1596  054C  1683               	bsf	3,5	;RP0=1, select bank1
  1597  054D  1303               	bcf	3,6	;RP1=0, select bank1
  1598  054E  01C0               	clrf	_em2^(0+128)
  1599  054F  01C1               	clrf	(_em2+1)^(0+128)
  1600                           
  1601                           ;main.c: 249:             } else if ((veloc - old_Veloc) < rajada && em2 == 0) {
  1602  0550  2DF6               	goto	l3464
  1603  0551                     l3438:
  1604  0551  1683               	bsf	3,5	;RP0=1, select bank1
  1605  0552  1303               	bcf	3,6	;RP1=0, select bank1
  1606  0553  0844               	movf	_old_Veloc^(0+128),w
  1607  0554  0278               	subwf	_veloc,w
  1608  0555  00A0               	movwf	??_main^(0+128)
  1609  0556  0845               	movf	(_old_Veloc+1)^(0+128),w
  1610  0557  1C03               	skipc
  1611  0558  0A45               	incf	(_old_Veloc+1)^(0+128),w
  1612  0559  0279               	subwf	_veloc+1,w
  1613  055A  00A1               	movwf	(??_main+1)^(0+128)
  1614  055B  0821               	movf	(??_main+1)^(0+128),w
  1615  055C  3A80               	xorlw	128
  1616  055D  00A2               	movwf	(??_main+2)^(0+128)
  1617  055E  0830               	movf	(main@rajada+1)^(0+128),w
  1618  055F  3A80               	xorlw	128
  1619  0560  0222               	subwf	(??_main+2)^(0+128),w
  1620  0561  1D03               	skipz
  1621  0562  2D65               	goto	u4615
  1622  0563  082F               	movf	main@rajada^(0+128),w
  1623  0564  0220               	subwf	??_main^(0+128),w
  1624  0565                     u4615:
  1625  0565  1803               	skipnc
  1626  0566  2D68               	goto	u4611
  1627  0567  2D69               	goto	u4610
  1628  0568                     u4611:
  1629  0568  2D76               	goto	l3444
  1630  0569                     u4610:
  1631  0569                     l3440:
  1632  0569  1683               	bsf	3,5	;RP0=1, select bank1
  1633  056A  1303               	bcf	3,6	;RP1=0, select bank1
  1634  056B  0840               	movf	_em2^(0+128),w
  1635  056C  0441               	iorwf	(_em2+1)^(0+128),w
  1636  056D  1D03               	btfss	3,2
  1637  056E  2D70               	goto	u4621
  1638  056F  2D71               	goto	u4620
  1639  0570                     u4621:
  1640  0570  2D76               	goto	l3444
  1641  0571                     u4620:
  1642  0571                     l3442:
  1643                           
  1644                           ;main.c: 250:                 em2 = 1;
  1645  0571  3001               	movlw	1
  1646  0572  00C0               	movwf	_em2^(0+128)
  1647  0573  3000               	movlw	0
  1648  0574  00C1               	movwf	(_em2^(0+128)+1)
  1649                           
  1650                           ;main.c: 252:             } else if (temp >= param_temp && hum <= param_hum && veloc >= 
      +                          param_vel && em1 == 1) {
  1651  0575  2DF6               	goto	l3464
  1652  0576                     l3444:
  1653  0576  1683               	bsf	3,5	;RP0=1, select bank1
  1654  0577  1303               	bcf	3,6	;RP1=0, select bank1
  1655  0578  0832               	movf	(main@temp+1)^(0+128),w
  1656  0579  3A80               	xorlw	128
  1657  057A  00A0               	movwf	??_main^(0+128)
  1658  057B  082A               	movf	(main@param_temp+1)^(0+128),w
  1659  057C  3A80               	xorlw	128
  1660  057D  0220               	subwf	??_main^(0+128),w
  1661  057E  1D03               	skipz
  1662  057F  2D82               	goto	u4635
  1663  0580  0829               	movf	main@param_temp^(0+128),w
  1664  0581  0231               	subwf	main@temp^(0+128),w
  1665  0582                     u4635:
  1666  0582  1C03               	skipc
  1667  0583  2D85               	goto	u4631
  1668  0584  2D86               	goto	u4630
  1669  0585                     u4631:
  1670  0585  2DD9               	goto	l3458
  1671  0586                     u4630:
  1672  0586                     l3446:
  1673  0586  1683               	bsf	3,5	;RP0=1, select bank1
  1674  0587  1303               	bcf	3,6	;RP1=0, select bank1
  1675  0588  082E               	movf	(main@param_hum+1)^(0+128),w
  1676  0589  3A80               	xorlw	128
  1677  058A  00A0               	movwf	??_main^(0+128)
  1678  058B  0835               	movf	(main@hum+1)^(0+128),w
  1679  058C  3A80               	xorlw	128
  1680  058D  0220               	subwf	??_main^(0+128),w
  1681  058E  1D03               	skipz
  1682  058F  2D92               	goto	u4645
  1683  0590  0834               	movf	main@hum^(0+128),w
  1684  0591  022D               	subwf	main@param_hum^(0+128),w
  1685  0592                     u4645:
  1686  0592  1C03               	skipc
  1687  0593  2D95               	goto	u4641
  1688  0594  2D96               	goto	u4640
  1689  0595                     u4641:
  1690  0595  2DD9               	goto	l3458
  1691  0596                     u4640:
  1692  0596                     l3448:
  1693  0596  0879               	movf	_veloc+1,w
  1694  0597  3A80               	xorlw	128
  1695  0598  1683               	bsf	3,5	;RP0=1, select bank1
  1696  0599  1303               	bcf	3,6	;RP1=0, select bank1
  1697  059A  00A0               	movwf	??_main^(0+128)
  1698  059B  082C               	movf	(main@param_vel+1)^(0+128),w
  1699  059C  3A80               	xorlw	128
  1700  059D  0220               	subwf	??_main^(0+128),w
  1701  059E  1D03               	skipz
  1702  059F  2DA2               	goto	u4655
  1703  05A0  082B               	movf	main@param_vel^(0+128),w
  1704  05A1  0278               	subwf	_veloc,w
  1705  05A2                     u4655:
  1706  05A2  1C03               	skipc
  1707  05A3  2DA5               	goto	u4651
  1708  05A4  2DA6               	goto	u4650
  1709  05A5                     u4651:
  1710  05A5  2DD9               	goto	l3458
  1711  05A6                     u4650:
  1712  05A6                     l3450:
  1713  05A6  1683               	bsf	3,5	;RP0=1, select bank1
  1714  05A7  1303               	bcf	3,6	;RP1=0, select bank1
  1715  05A8  0342               	decf	_em1^(0+128),w
  1716  05A9  0443               	iorwf	(_em1+1)^(0+128),w
  1717  05AA  1D03               	btfss	3,2
  1718  05AB  2DAD               	goto	u4661
  1719  05AC  2DAE               	goto	u4660
  1720  05AD                     u4661:
  1721  05AD  2DD9               	goto	l3458
  1722  05AE                     u4660:
  1723  05AE                     l3452:
  1724                           
  1725                           ;main.c: 253:                 em1 = 0;
  1726  05AE  01C2               	clrf	_em1^(0+128)
  1727  05AF  01C3               	clrf	(_em1+1)^(0+128)
  1728  05B0                     l3454:
  1729                           
  1730                           ;main.c: 254:                 sendMessage(temp, hum, veloc, "EM1");
  1731  05B0  0832               	movf	(main@temp+1)^(0+128),w
  1732  05B1  1283               	bcf	3,5	;RP0=0, select bank0
  1733  05B2  1303               	bcf	3,6	;RP1=0, select bank0
  1734  05B3  00C1               	movwf	sendMessage@temp+1
  1735  05B4  1683               	bsf	3,5	;RP0=1, select bank1
  1736  05B5  1303               	bcf	3,6	;RP1=0, select bank1
  1737  05B6  0831               	movf	main@temp^(0+128),w
  1738  05B7  1283               	bcf	3,5	;RP0=0, select bank0
  1739  05B8  1303               	bcf	3,6	;RP1=0, select bank0
  1740  05B9  00C0               	movwf	sendMessage@temp
  1741  05BA  1683               	bsf	3,5	;RP0=1, select bank1
  1742  05BB  1303               	bcf	3,6	;RP1=0, select bank1
  1743  05BC  0835               	movf	(main@hum+1)^(0+128),w
  1744  05BD  1283               	bcf	3,5	;RP0=0, select bank0
  1745  05BE  1303               	bcf	3,6	;RP1=0, select bank0
  1746  05BF  00C3               	movwf	sendMessage@humidade+1
  1747  05C0  1683               	bsf	3,5	;RP0=1, select bank1
  1748  05C1  1303               	bcf	3,6	;RP1=0, select bank1
  1749  05C2  0834               	movf	main@hum^(0+128),w
  1750  05C3  1283               	bcf	3,5	;RP0=0, select bank0
  1751  05C4  1303               	bcf	3,6	;RP1=0, select bank0
  1752  05C5  00C2               	movwf	sendMessage@humidade
  1753  05C6  0879               	movf	_veloc+1,w
  1754  05C7  00C5               	movwf	sendMessage@velVent+1
  1755  05C8  0878               	movf	_veloc,w
  1756  05C9  00C4               	movwf	sendMessage@velVent
  1757  05CA  304B               	movlw	(low ((STR_6-__stringbase)| (0+32768)))& (0+255)
  1758  05CB  00FF               	movwf	btemp+1
  1759  05CC  087F               	movf	btemp+1,w
  1760  05CD  00C6               	movwf	sendMessage@situation
  1761  05CE  120A  158A  224A  120A  118A  	fcall	_sendMessage
  1762  05D3                     l3456:
  1763                           
  1764                           ;main.c: 255:                 buzzer();
  1765  05D3  120A  158A  2179  120A  118A  	fcall	_buzzer
  1766                           
  1767                           ;main.c: 256:             } else if ((hum > param_hum) && em1 == 0)
  1768  05D8  2DF6               	goto	l3464
  1769  05D9                     l3458:
  1770  05D9  1683               	bsf	3,5	;RP0=1, select bank1
  1771  05DA  1303               	bcf	3,6	;RP1=0, select bank1
  1772  05DB  082E               	movf	(main@param_hum+1)^(0+128),w
  1773  05DC  3A80               	xorlw	128
  1774  05DD  00A0               	movwf	??_main^(0+128)
  1775  05DE  0835               	movf	(main@hum+1)^(0+128),w
  1776  05DF  3A80               	xorlw	128
  1777  05E0  0220               	subwf	??_main^(0+128),w
  1778  05E1  1D03               	skipz
  1779  05E2  2DE5               	goto	u4675
  1780  05E3  0834               	movf	main@hum^(0+128),w
  1781  05E4  022D               	subwf	main@param_hum^(0+128),w
  1782  05E5                     u4675:
  1783  05E5  1803               	skipnc
  1784  05E6  2DE8               	goto	u4671
  1785  05E7  2DE9               	goto	u4670
  1786  05E8                     u4671:
  1787  05E8  2DF6               	goto	l171
  1788  05E9                     u4670:
  1789  05E9                     l3460:
  1790  05E9  1683               	bsf	3,5	;RP0=1, select bank1
  1791  05EA  1303               	bcf	3,6	;RP1=0, select bank1
  1792  05EB  0842               	movf	_em1^(0+128),w
  1793  05EC  0443               	iorwf	(_em1+1)^(0+128),w
  1794  05ED  1D03               	btfss	3,2
  1795  05EE  2DF0               	goto	u4681
  1796  05EF  2DF1               	goto	u4680
  1797  05F0                     u4681:
  1798  05F0  2DF6               	goto	l171
  1799  05F1                     u4680:
  1800  05F1                     l3462:
  1801                           
  1802                           ;main.c: 257:                 em1 = 1;
  1803  05F1  3001               	movlw	1
  1804  05F2  00C2               	movwf	_em1^(0+128)
  1805  05F3  3000               	movlw	0
  1806  05F4  00C3               	movwf	(_em1^(0+128)+1)
  1807  05F5  2DF6               	goto	l3464
  1808  05F6                     l171:
  1809  05F6                     l3464:
  1810                           
  1811                           ;main.c: 262:             if (!PORTBbits.RB3) {
  1812  05F6  1283               	bcf	3,5	;RP0=0, select bank0
  1813  05F7  1303               	bcf	3,6	;RP1=0, select bank0
  1814  05F8  1986               	btfsc	6,3	;volatile
  1815  05F9  2DFB               	goto	u4691
  1816  05FA  2DFC               	goto	u4690
  1817  05FB                     u4691:
  1818  05FB  2E20               	goto	l3472
  1819  05FC                     u4690:
  1820  05FC  2E0B               	goto	l3470
  1821  05FD                     l178:
  1822  05FD  1283               	bcf	3,5	;RP0=0, select bank0
  1823  05FE  1D86               	btfss	6,3	;volatile
  1824  05FF  2E01               	goto	u4701
  1825  0600  2E02               	goto	u4700
  1826  0601                     u4701:
  1827  0601  2DFD               	goto	l178
  1828  0602                     u4700:
  1829  0602                     l180:
  1830                           
  1831                           ;main.c: 267:                         PORTCbits.RC5 = 1;
  1832  0602  1687               	bsf	7,5	;volatile
  1833                           
  1834                           ;main.c: 269:                     };main.c: 270:                         break;
  1835  0603  2E20               	goto	l3472
  1836  0604                     l183:
  1837  0604  1283               	bcf	3,5	;RP0=0, select bank0
  1838  0605  1D86               	btfss	6,3	;volatile
  1839  0606  2E08               	goto	u4711
  1840  0607  2E09               	goto	u4710
  1841  0608                     u4711:
  1842  0608  2E04               	goto	l183
  1843  0609                     u4710:
  1844  0609                     l185:
  1845                           
  1846                           ;main.c: 274:                         PORTCbits.RC5 = 0;
  1847  0609  1287               	bcf	7,5	;volatile
  1848                           
  1849                           ;main.c: 275:                     };main.c: 276:                         break;
  1850  060A  2E20               	goto	l3472
  1851  060B                     l3470:
  1852  060B  0E07               	swapf	7,w	;volatile
  1853  060C  1683               	bsf	3,5	;RP0=1, select bank1
  1854  060D  1303               	bcf	3,6	;RP1=0, select bank1
  1855  060E  00A0               	movwf	??_main^(0+128)
  1856  060F  0C20               	rrf	??_main^(0+128),w
  1857  0610  3901               	andlw	1
  1858  0611  00A1               	movwf	(??_main+1)^(0+128)
  1859  0612  01A2               	clrf	((??_main+1)^(0+128)+1)
  1860                           
  1861                           ; Switch on 2 bytes has been partitioned into a top level switch of size 1, and 1 sub-sw
      +                          itches
  1862                           ; Switch size 1, requested type "simple"
  1863                           ; Number of cases is 1, Range of values is 0 to 0
  1864                           ; switch strategies available:
  1865                           ; Name         Instructions Cycles
  1866                           ; simple_byte            4     3 (average)
  1867                           ; direct_byte           11     8 (fixed)
  1868                           ; jumptable            260     6 (fixed)
  1869                           ;	Chosen strategy is simple_byte
  1870  0613  0822               	movf	(??_main+2)^(0+128),w
  1871  0614  3A00               	xorlw	0	; case 0
  1872  0615  1903               	skipnz
  1873  0616  2E18               	goto	l3552
  1874  0617  2E20               	goto	l3472
  1875  0618                     l3552:
  1876                           
  1877                           ; Switch size 1, requested type "simple"
  1878                           ; Number of cases is 2, Range of values is 0 to 1
  1879                           ; switch strategies available:
  1880                           ; Name         Instructions Cycles
  1881                           ; simple_byte            7     4 (average)
  1882                           ; direct_byte           14     8 (fixed)
  1883                           ; jumptable            260     6 (fixed)
  1884                           ;	Chosen strategy is simple_byte
  1885  0618  0821               	movf	(??_main+1)^(0+128),w
  1886  0619  3A00               	xorlw	0	; case 0
  1887  061A  1903               	skipnz
  1888  061B  2DFD               	goto	l178
  1889  061C  3A01               	xorlw	1	; case 1
  1890  061D  1903               	skipnz
  1891  061E  2E04               	goto	l183
  1892  061F  2E20               	goto	l3472
  1893  0620                     l3472:
  1894                           
  1895                           ;main.c: 201:         while (start) {
  1896  0620  0876               	movf	_start,w
  1897  0621  0477               	iorwf	_start+1,w
  1898  0622  1D03               	btfss	3,2
  1899  0623  2E25               	goto	u4721
  1900  0624  2E26               	goto	u4720
  1901  0625                     u4721:
  1902  0625  2C29               	goto	l3376
  1903  0626                     u4720:
  1904  0626                     l154:	
  1905                           ;main.c: 282:     }
  1906                           
  1907                           
  1908                           ;main.c: 283:     T2CONbits.TMR2ON = 0;
  1909  0626  1283               	bcf	3,5	;RP0=0, select bank0
  1910  0627  1303               	bcf	3,6	;RP1=0, select bank0
  1911  0628  1112               	bcf	18,2	;volatile
  1912  0629                     l3474:
  1913                           
  1914                           ;main.c: 284:     T1CON = 0;
  1915  0629  0190               	clrf	16	;volatile
  1916                           
  1917                           ;main.c: 285:     OPTION_REG = 0;
  1918  062A  1683               	bsf	3,5	;RP0=1, select bank1
  1919  062B  1303               	bcf	3,6	;RP1=0, select bank1
  1920  062C  0181               	clrf	1	;volatile
  1921  062D                     l3476:
  1922                           
  1923                           ;main.c: 286:     INTCONbits.GIE = 0;
  1924  062D  138B               	bcf	11,7	;volatile
  1925  062E                     l3478:
  1926                           
  1927                           ;main.c: 287:     INTCONbits.TMR0IE = 0;
  1928  062E  128B               	bcf	11,5	;volatile
  1929  062F                     l3480:
  1930                           
  1931                           ;main.c: 288:     INTCONbits.PEIE = 0;
  1932  062F  130B               	bcf	11,6	;volatile
  1933  0630                     l3482:
  1934                           
  1935                           ;main.c: 289:     PORTCbits.RC2 = 0;
  1936  0630  1283               	bcf	3,5	;RP0=0, select bank0
  1937  0631  1303               	bcf	3,6	;RP1=0, select bank0
  1938  0632  1107               	bcf	7,2	;volatile
  1939  0633                     l3484:
  1940                           
  1941                           ;main.c: 290:     PORTCbits.RC5 = 0;
  1942  0633  1287               	bcf	7,5	;volatile
  1943  0634                     l3486:
  1944                           
  1945                           ;main.c: 291:     veloc = 635, old_Veloc = 635, count = 0, s = 0;
  1946  0634  307B               	movlw	123
  1947  0635  00F8               	movwf	_veloc
  1948  0636  3002               	movlw	2
  1949  0637  00F9               	movwf	_veloc+1
  1950  0638                     l3488:
  1951  0638  307B               	movlw	123
  1952  0639  1683               	bsf	3,5	;RP0=1, select bank1
  1953  063A  1303               	bcf	3,6	;RP1=0, select bank1
  1954  063B  00C4               	movwf	_old_Veloc^(0+128)
  1955  063C  3002               	movlw	2
  1956  063D  00C5               	movwf	(_old_Veloc^(0+128)+1)
  1957  063E                     l3490:
  1958  063E  3000               	movlw	0
  1959  063F  00B9               	movwf	(_count+3)^(0+128)
  1960  0640  3000               	movlw	0
  1961  0641  00B8               	movwf	(_count+2)^(0+128)
  1962  0642  3000               	movlw	0
  1963  0643  00B7               	movwf	(_count+1)^(0+128)
  1964  0644  3000               	movlw	0
  1965  0645  00B6               	movwf	_count^(0+128)
  1966  0646                     l3492:
  1967  0646  01BC               	clrf	_s^(0+128)
  1968  0647  01BD               	clrf	(_s+1)^(0+128)
  1969  0648                     l187:
  1970  0648  120A  118A  280C   	ljmp	start
  1971  064B                     __end_of_main:
  1972                           
  1973                           	psect	text1
  1974  09A6                     __ptext1:	
  1975 ;; *************** function _valuefromSensor *****************
  1976 ;; Defined at:
  1977 ;;		line 144 in file "main.c"
  1978 ;; Parameters:    Size  Location     Type
  1979 ;;  channel         2    4[COMMON] unsigned int 
  1980 ;; Auto vars:     Size  Location     Type
  1981 ;;		None
  1982 ;; Return value:  Size  Location     Type
  1983 ;;                  2    4[COMMON] unsigned int 
  1984 ;; Registers used:
  1985 ;;		wreg, status,2, status,0, btemp+1
  1986 ;; Tracked objects:
  1987 ;;		On entry : 0/0
  1988 ;;		On exit  : 0/0
  1989 ;;		Unchanged: 0/0
  1990 ;; Data sizes:     COMMON   BANK0   BANK1   BANK3   BANK2
  1991 ;;      Params:         2       0       0       0       0
  1992 ;;      Locals:         0       0       0       0       0
  1993 ;;      Temps:          0       1       0       0       0
  1994 ;;      Totals:         2       1       0       0       0
  1995 ;;Total ram usage:        3 bytes
  1996 ;; Hardware stack levels used:    1
  1997 ;; Hardware stack levels required when called:    1
  1998 ;; This function calls:
  1999 ;;		Nothing
  2000 ;; This function is called by:
  2001 ;;		_main
  2002 ;; This function uses a non-reentrant model
  2003 ;;
  2004                           
  2005                           
  2006                           ;psect for function _valuefromSensor
  2007  09A6                     _valuefromSensor:
  2008  09A6                     l3276:	
  2009                           ;incstack = 0
  2010                           ; Regs used in _valuefromSensor: [wreg+status,2+status,0+btemp+1]
  2011                           
  2012                           
  2013                           ;main.c: 145:     ADCON0 &= 0x11000101;
  2014  09A6  3001               	movlw	1
  2015  09A7  00FF               	movwf	btemp+1
  2016  09A8  087F               	movf	btemp+1,w
  2017  09A9  1283               	bcf	3,5	;RP0=0, select bank0
  2018  09AA  1303               	bcf	3,6	;RP1=0, select bank0
  2019  09AB  059F               	andwf	31,f	;volatile
  2020                           
  2021                           ;main.c: 146:     ADCON0 |= channel << 3;
  2022  09AC  0874               	movf	valuefromSensor@channel,w	;volatile
  2023  09AD  00A0               	movwf	??_valuefromSensor
  2024  09AE  3002               	movlw	2
  2025  09AF                     u4445:
  2026  09AF  1003               	clrc
  2027  09B0  0DA0               	rlf	??_valuefromSensor,f
  2028  09B1  3EFF               	addlw	-1
  2029  09B2  1D03               	skipz
  2030  09B3  29AF               	goto	u4445
  2031  09B4  1003               	clrc
  2032  09B5  0D20               	rlf	??_valuefromSensor,w
  2033  09B6  00FF               	movwf	btemp+1
  2034  09B7  087F               	movf	btemp+1,w
  2035  09B8  049F               	iorwf	31,f	;volatile
  2036  09B9                     l3278:
  2037                           
  2038                           ;main.c: 147:     GO_nDONE = 1;
  2039  09B9  151F               	bsf	31,2	;volatile
  2040  09BA                     l143:	
  2041                           ;main.c: 148:     while (GO_nDONE);
  2042                           
  2043  09BA  191F               	btfsc	31,2	;volatile
  2044  09BB  29BD               	goto	u4451
  2045  09BC  29BE               	goto	u4450
  2046  09BD                     u4451:
  2047  09BD  29BA               	goto	l143
  2048  09BE                     u4450:
  2049  09BE                     l3280:
  2050                           
  2051                           ;main.c: 149:     return ((ADRESH << 8) + ADRESL);
  2052  09BE  081E               	movf	30,w	;volatile
  2053  09BF  00F5               	movwf	?_valuefromSensor+1
  2054  09C0  1683               	bsf	3,5	;RP0=1, select bank1
  2055  09C1  1303               	bcf	3,6	;RP1=0, select bank1
  2056  09C2  081E               	movf	30,w	;volatile
  2057  09C3  00F4               	movwf	?_valuefromSensor
  2058  09C4                     l146:
  2059  09C4  0008               	return
  2060  09C5                     __end_of_valuefromSensor:
  2061                           
  2062                           	psect	text2
  2063  0954                     __ptext2:	
  2064 ;; *************** function _usartSetup *****************
  2065 ;; Defined at:
  2066 ;;		line 54 in file "main.c"
  2067 ;; Parameters:    Size  Location     Type
  2068 ;;		None
  2069 ;; Auto vars:     Size  Location     Type
  2070 ;;		None
  2071 ;; Return value:  Size  Location     Type
  2072 ;;                  1    wreg      void 
  2073 ;; Registers used:
  2074 ;;		wreg
  2075 ;; Tracked objects:
  2076 ;;		On entry : 0/0
  2077 ;;		On exit  : 0/0
  2078 ;;		Unchanged: 0/0
  2079 ;; Data sizes:     COMMON   BANK0   BANK1   BANK3   BANK2
  2080 ;;      Params:         0       0       0       0       0
  2081 ;;      Locals:         0       0       0       0       0
  2082 ;;      Temps:          0       0       0       0       0
  2083 ;;      Totals:         0       0       0       0       0
  2084 ;;Total ram usage:        0 bytes
  2085 ;; Hardware stack levels used:    1
  2086 ;; Hardware stack levels required when called:    1
  2087 ;; This function calls:
  2088 ;;		Nothing
  2089 ;; This function is called by:
  2090 ;;		_main
  2091 ;; This function uses a non-reentrant model
  2092 ;;
  2093                           
  2094                           
  2095                           ;psect for function _usartSetup
  2096  0954                     _usartSetup:
  2097  0954                     l2492:	
  2098                           ;incstack = 0
  2099                           ; Regs used in _usartSetup: [wreg]
  2100                           
  2101                           
  2102                           ;main.c: 55:     TXSTAbits.TXEN = 1;
  2103  0954  1683               	bsf	3,5	;RP0=1, select bank1
  2104  0955  1303               	bcf	3,6	;RP1=0, select bank1
  2105  0956  1698               	bsf	24,5	;volatile
  2106                           
  2107                           ;main.c: 56:     TXSTAbits.TX9 = 0;
  2108  0957  1318               	bcf	24,6	;volatile
  2109                           
  2110                           ;main.c: 57:     TXSTAbits.SYNC = 0;
  2111  0958  1218               	bcf	24,4	;volatile
  2112                           
  2113                           ;main.c: 58:     TXSTAbits.BRGH = 1;
  2114  0959  1518               	bsf	24,2	;volatile
  2115                           
  2116                           ;main.c: 59:     RCSTAbits.SPEN = 1;
  2117  095A  1283               	bcf	3,5	;RP0=0, select bank0
  2118  095B  1303               	bcf	3,6	;RP1=0, select bank0
  2119  095C  1798               	bsf	24,7	;volatile
  2120                           
  2121                           ;main.c: 60:     RCSTAbits.RX9 = 0;
  2122  095D  1318               	bcf	24,6	;volatile
  2123                           
  2124                           ;main.c: 61:     RCSTAbits.CREN = 1;
  2125  095E  1618               	bsf	24,4	;volatile
  2126  095F                     l2494:
  2127                           
  2128                           ;main.c: 62:     SPBRG = 25;
  2129  095F  3019               	movlw	25
  2130  0960  1683               	bsf	3,5	;RP0=1, select bank1
  2131  0961  1303               	bcf	3,6	;RP1=0, select bank1
  2132  0962  0099               	movwf	25	;volatile
  2133  0963                     l113:
  2134  0963  0008               	return
  2135  0964                     __end_of_usartSetup:
  2136                           
  2137                           	psect	text3
  2138  0A4A                     __ptext3:	
  2139 ;; *************** function _sendMessage *****************
  2140 ;; Defined at:
  2141 ;;		line 152 in file "main.c"
  2142 ;; Parameters:    Size  Location     Type
  2143 ;;  temp            2   32[BANK0 ] int 
  2144 ;;  humidade        2   34[BANK0 ] int 
  2145 ;;  velVent         2   36[BANK0 ] int 
  2146 ;;  situation       1   38[BANK0 ] PTR unsigned char 
  2147 ;;		 -> STR_6(4), STR_5(4), STR_4(2), STR_3(3), 
  2148 ;; Auto vars:     Size  Location     Type
  2149 ;;  temp_buf       90    0[BANK3 ] unsigned char [90]
  2150 ;; Return value:  Size  Location     Type
  2151 ;;                  1    wreg      void 
  2152 ;; Registers used:
  2153 ;;		wreg, fsr0l, fsr0h, status,2, status,0, btemp+1, pclath, cstack
  2154 ;; Tracked objects:
  2155 ;;		On entry : 0/0
  2156 ;;		On exit  : 0/0
  2157 ;;		Unchanged: 0/0
  2158 ;; Data sizes:     COMMON   BANK0   BANK1   BANK3   BANK2
  2159 ;;      Params:         0       7       0       0       0
  2160 ;;      Locals:         0       0       0      90       0
  2161 ;;      Temps:          0       0       0       0       0
  2162 ;;      Totals:         0       7       0      90       0
  2163 ;;Total ram usage:       97 bytes
  2164 ;; Hardware stack levels used:    1
  2165 ;; Hardware stack levels required when called:    3
  2166 ;; This function calls:
  2167 ;;		_sprintf
  2168 ;;		_strlen
  2169 ;;		_uartSendString
  2170 ;; This function is called by:
  2171 ;;		_main
  2172 ;; This function uses a non-reentrant model
  2173 ;;
  2174                           
  2175                           
  2176                           ;psect for function _sendMessage
  2177  0A4A                     _sendMessage:
  2178  0A4A                     l3284:	
  2179                           ;incstack = 0
  2180                           ; Regs used in _sendMessage: [wreg-fsr0h+status,2+status,0+btemp+1+pclath+cstack]
  2181                           
  2182                           
  2183                           ;main.c: 153:     char temp_buf[90];;main.c: 154:     sprintf(temp_buf, "\r\n{\n\"Sit\":
      +                          \"%s\",\n\"Temp\":%d,\n\"Hum\":%d,\n\"Vel\":%d\n}\r\n", situation, temp, humidade, velVe
      +                          nt);
  2184  0A4A  300B               	movlw	(low ((STR_1-__stringbase)| (0+32768)))& (0+255)
  2185  0A4B  00FF               	movwf	btemp+1
  2186  0A4C  087F               	movf	btemp+1,w
  2187  0A4D  1283               	bcf	3,5	;RP0=0, select bank0
  2188  0A4E  1303               	bcf	3,6	;RP1=0, select bank0
  2189  0A4F  00AB               	movwf	sprintf@f
  2190  0A50  0846               	movf	sendMessage@situation,w
  2191  0A51  00AC               	movwf	low ((?_sprintf| 0+1))
  2192  0A52  3000               	movlw	0
  2193  0A53  1D03               	btfss	3,2
  2194  0A54  3080               	movlw	128
  2195  0A55  00AD               	movwf	(low ((?_sprintf| 0+1))+1)
  2196  0A56  0841               	movf	sendMessage@temp+1,w
  2197  0A57  00AF               	movwf	?_sprintf+4
  2198  0A58  0840               	movf	sendMessage@temp,w
  2199  0A59  00AE               	movwf	?_sprintf+3
  2200  0A5A  0843               	movf	sendMessage@humidade+1,w
  2201  0A5B  00B1               	movwf	?_sprintf+6
  2202  0A5C  0842               	movf	sendMessage@humidade,w
  2203  0A5D  00B0               	movwf	?_sprintf+5
  2204  0A5E  0845               	movf	sendMessage@velVent+1,w
  2205  0A5F  00B3               	movwf	?_sprintf+8
  2206  0A60  0844               	movf	sendMessage@velVent,w
  2207  0A61  00B2               	movwf	?_sprintf+7
  2208  0A62  3090               	movlw	(low (sendMessage@temp_buf| (0+256)))& (0+255)
  2209  0A63  120A  118A  264B  120A  158A  	fcall	_sprintf
  2210                           
  2211                           ;main.c: 155:     temp_buf[strlen(temp_buf) + 1] = '\0';
  2212  0A68  3090               	movlw	(low (sendMessage@temp_buf| (0+256)))& (0+255)
  2213  0A69  00F4               	movwf	strlen@s
  2214  0A6A  3001               	movlw	1
  2215  0A6B  00F5               	movwf	strlen@s+1
  2216  0A6C  120A  158A  21C5  120A  158A  	fcall	_strlen
  2217  0A71  0874               	movf	?_strlen,w
  2218  0A72  3E01               	addlw	1
  2219  0A73  3E90               	addlw	(low (sendMessage@temp_buf| (0+256)))& (0+255)
  2220  0A74  0084               	movwf	4
  2221  0A75  1783               	bsf	3,7	;select IRP bank3
  2222  0A76  0180               	clrf	0
  2223  0A77                     l3286:
  2224                           
  2225                           ;main.c: 156:     uartSendString(temp_buf);
  2226  0A77  3090               	movlw	(low (sendMessage@temp_buf| (0+256)))& (0+255)
  2227  0A78  1283               	bcf	3,5	;RP0=0, select bank0
  2228  0A79  1303               	bcf	3,6	;RP1=0, select bank0
  2229  0A7A  00A0               	movwf	uartSendString@str
  2230  0A7B  3001               	movlw	1
  2231  0A7C  00A1               	movwf	uartSendString@str+1
  2232  0A7D  120A  158A  22BF  120A  158A  	fcall	_uartSendString
  2233  0A82                     l149:
  2234  0A82  0008               	return
  2235  0A83                     __end_of_sendMessage:
  2236                           
  2237                           	psect	text4
  2238  0ABF                     __ptext4:	
  2239 ;; *************** function _uartSendString *****************
  2240 ;; Defined at:
  2241 ;;		line 46 in file "main.c"
  2242 ;; Parameters:    Size  Location     Type
  2243 ;;  str             2    0[BANK0 ] PTR unsigned char 
  2244 ;;		 -> main@teste(6), sendMessage@temp_buf(90), 
  2245 ;; Auto vars:     Size  Location     Type
  2246 ;;  i               2    5[BANK0 ] int 
  2247 ;; Return value:  Size  Location     Type
  2248 ;;                  1    wreg      void 
  2249 ;; Registers used:
  2250 ;;		wreg, fsr0l, fsr0h, status,2, status,0, pclath, cstack
  2251 ;; Tracked objects:
  2252 ;;		On entry : 0/0
  2253 ;;		On exit  : 0/0
  2254 ;;		Unchanged: 0/0
  2255 ;; Data sizes:     COMMON   BANK0   BANK1   BANK3   BANK2
  2256 ;;      Params:         0       2       0       0       0
  2257 ;;      Locals:         0       2       0       0       0
  2258 ;;      Temps:          0       3       0       0       0
  2259 ;;      Totals:         0       7       0       0       0
  2260 ;;Total ram usage:        7 bytes
  2261 ;; Hardware stack levels used:    1
  2262 ;; Hardware stack levels required when called:    2
  2263 ;; This function calls:
  2264 ;;		_uartSendChar
  2265 ;; This function is called by:
  2266 ;;		_sendMessage
  2267 ;;		_main
  2268 ;; This function uses a non-reentrant model
  2269 ;;
  2270                           
  2271                           
  2272                           ;psect for function _uartSendString
  2273  0ABF                     _uartSendString:
  2274  0ABF                     l2908:	
  2275                           ;incstack = 0
  2276                           ; Regs used in _uartSendString: [wreg-fsr0h+status,2+status,0+pclath+cstack]
  2277                           
  2278                           
  2279                           ;main.c: 47:     int i;;main.c: 49:     for (i = 0; str[i] != '\0'; i++)
  2280  0ABF  1283               	bcf	3,5	;RP0=0, select bank0
  2281  0AC0  1303               	bcf	3,6	;RP1=0, select bank0
  2282  0AC1  01A5               	clrf	uartSendString@i
  2283  0AC2  01A6               	clrf	uartSendString@i+1
  2284  0AC3  2AE5               	goto	l2914
  2285  0AC4                     l2910:
  2286                           
  2287                           ;main.c: 50:         uartSendChar(str[i]);
  2288  0AC4  0825               	movf	uartSendString@i,w
  2289  0AC5  0720               	addwf	uartSendString@str,w
  2290  0AC6  00A3               	movwf	??_uartSendString+1
  2291  0AC7  0821               	movf	uartSendString@str+1,w
  2292  0AC8  00A2               	movwf	??_uartSendString
  2293  0AC9  1803               	skipnc
  2294  0ACA  0AA2               	incf	??_uartSendString,f
  2295  0ACB  1FA5               	btfss	uartSendString@i,7
  2296  0ACC  2ACE               	goto	u3580
  2297  0ACD  03A2               	decf	??_uartSendString,f
  2298  0ACE                     u3580:
  2299  0ACE  1283               	bcf	3,5	;RP0=0, select bank0
  2300  0ACF  1303               	bcf	3,6	;RP1=0, select bank0
  2301  0AD0  0822               	movf	??_uartSendString,w
  2302  0AD1  00A4               	movwf	??_uartSendString+2
  2303  0AD2  0823               	movf	??_uartSendString+1,w
  2304  0AD3  0084               	movwf	4
  2305  0AD4  1783               	bsf	3,7
  2306  0AD5  1C24               	btfss	??_uartSendString+2,0
  2307  0AD6  1383               	bcf	3,7
  2308  0AD7  0800               	movf	0,w
  2309  0AD8  120A  118A  27F5  120A  158A  	fcall	_uartSendChar
  2310  0ADD                     l2912:
  2311  0ADD  3001               	movlw	1
  2312  0ADE  1283               	bcf	3,5	;RP0=0, select bank0
  2313  0ADF  1303               	bcf	3,6	;RP1=0, select bank0
  2314  0AE0  07A5               	addwf	uartSendString@i,f
  2315  0AE1  1803               	skipnc
  2316  0AE2  0AA6               	incf	uartSendString@i+1,f
  2317  0AE3  3000               	movlw	0
  2318  0AE4  07A6               	addwf	uartSendString@i+1,f
  2319  0AE5                     l2914:
  2320  0AE5  0825               	movf	uartSendString@i,w
  2321  0AE6  0720               	addwf	uartSendString@str,w
  2322  0AE7  00A3               	movwf	??_uartSendString+1
  2323  0AE8  0821               	movf	uartSendString@str+1,w
  2324  0AE9  00A2               	movwf	??_uartSendString
  2325  0AEA  1803               	skipnc
  2326  0AEB  0AA2               	incf	??_uartSendString,f
  2327  0AEC  1FA5               	btfss	uartSendString@i,7
  2328  0AED  2AEF               	goto	u3590
  2329  0AEE  03A2               	decf	??_uartSendString,f
  2330  0AEF                     u3590:
  2331  0AEF  1283               	bcf	3,5	;RP0=0, select bank0
  2332  0AF0  1303               	bcf	3,6	;RP1=0, select bank0
  2333  0AF1  0822               	movf	??_uartSendString,w
  2334  0AF2  00A4               	movwf	??_uartSendString+2
  2335  0AF3  0823               	movf	??_uartSendString+1,w
  2336  0AF4  0084               	movwf	4
  2337  0AF5  1783               	bsf	3,7
  2338  0AF6  1C24               	btfss	??_uartSendString+2,0
  2339  0AF7  1383               	bcf	3,7
  2340  0AF8  0800               	movf	0,w
  2341  0AF9  1D03               	btfss	3,2
  2342  0AFA  2AFC               	goto	u3601
  2343  0AFB  2AFD               	goto	u3600
  2344  0AFC                     u3601:
  2345  0AFC  2AC4               	goto	l2910
  2346  0AFD                     u3600:
  2347  0AFD                     l109:
  2348                           
  2349                           ;main.c: 51:     TXIF = 0;
  2350  0AFD  120C               	bcf	12,4	;volatile
  2351  0AFE                     l110:
  2352  0AFE  0008               	return
  2353  0AFF                     __end_of_uartSendString:
  2354                           
  2355                           	psect	text5
  2356  07F5                     __ptext5:	
  2357 ;; *************** function _uartSendChar *****************
  2358 ;; Defined at:
  2359 ;;		line 39 in file "main.c"
  2360 ;; Parameters:    Size  Location     Type
  2361 ;;  data            1    wreg     unsigned char 
  2362 ;; Auto vars:     Size  Location     Type
  2363 ;;  data            1    4[COMMON] unsigned char 
  2364 ;; Return value:  Size  Location     Type
  2365 ;;                  1    wreg      void 
  2366 ;; Registers used:
  2367 ;;		wreg
  2368 ;; Tracked objects:
  2369 ;;		On entry : 0/0
  2370 ;;		On exit  : 0/0
  2371 ;;		Unchanged: 0/0
  2372 ;; Data sizes:     COMMON   BANK0   BANK1   BANK3   BANK2
  2373 ;;      Params:         0       0       0       0       0
  2374 ;;      Locals:         1       0       0       0       0
  2375 ;;      Temps:          0       0       0       0       0
  2376 ;;      Totals:         1       0       0       0       0
  2377 ;;Total ram usage:        1 bytes
  2378 ;; Hardware stack levels used:    1
  2379 ;; Hardware stack levels required when called:    1
  2380 ;; This function calls:
  2381 ;;		Nothing
  2382 ;; This function is called by:
  2383 ;;		_uartSendString
  2384 ;; This function uses a non-reentrant model
  2385 ;;
  2386                           
  2387                           
  2388                           ;psect for function _uartSendChar
  2389  07F5                     _uartSendChar:
  2390                           
  2391                           ;incstack = 0
  2392                           ; Regs used in _uartSendChar: [wreg]
  2393                           ;uartSendChar@data stored from wreg
  2394  07F5  00F4               	movwf	uartSendChar@data
  2395  07F6                     l1892:
  2396                           
  2397                           ;main.c: 41:     TXREG = data;
  2398  07F6  0874               	movf	uartSendChar@data,w
  2399  07F7  1283               	bcf	3,5	;RP0=0, select bank0
  2400  07F8  1303               	bcf	3,6	;RP1=0, select bank0
  2401  07F9  0099               	movwf	25	;volatile
  2402  07FA                     l101:	
  2403                           ;main.c: 42:     while (!PIR1bits.TXIF);
  2404                           
  2405  07FA  1E0C               	btfss	12,4	;volatile
  2406  07FB  2FFD               	goto	u1751
  2407  07FC  2FFE               	goto	u1750
  2408  07FD                     u1751:
  2409  07FD  2FFA               	goto	l101
  2410  07FE                     u1750:
  2411  07FE                     l104:
  2412  07FE  0008               	return
  2413  07FF                     __end_of_uartSendChar:
  2414                           
  2415                           	psect	text6
  2416  064B                     __ptext6:	
  2417 ;; *************** function _sprintf *****************
  2418 ;; Defined at:
  2419 ;;		line 505 in file "C:\Program Files (x86)\Microchip\MPLABX\v2.20\pic\sources\c90\common\doprnt.c"
  2420 ;; Parameters:    Size  Location     Type
  2421 ;;  sp              1    wreg     PTR unsigned char 
  2422 ;;		 -> sendMessage@temp_buf(90), 
  2423 ;;  f               1   11[BANK0 ] PTR const unsigned char 
  2424 ;;		 -> STR_1(50), 
  2425 ;; Auto vars:     Size  Location     Type
  2426 ;;  sp              1   30[BANK0 ] PTR unsigned char 
  2427 ;;		 -> sendMessage@temp_buf(90), 
  2428 ;;  tmpval          4    0        struct .
  2429 ;;  val             2   28[BANK0 ] unsigned int 
  2430 ;;  cp              2   26[BANK0 ] PTR const unsigned char 
  2431 ;;		 -> STR_7(7), ?_sprintf(2), STR_6(4), STR_5(4), 
  2432 ;;		 -> STR_4(2), STR_3(3), 
  2433 ;;  len             2    0        unsigned int 
  2434 ;;  c               1   31[BANK0 ] unsigned char 
  2435 ;;  ap              1   25[BANK0 ] PTR void [1]
  2436 ;;		 -> ?_sprintf(2), 
  2437 ;;  prec            1   24[BANK0 ] char 
  2438 ;;  flag            1   23[BANK0 ] unsigned char 
  2439 ;; Return value:  Size  Location     Type
  2440 ;;                  2   11[BANK0 ] int 
  2441 ;; Registers used:
  2442 ;;		wreg, fsr0l, fsr0h, status,2, status,0, btemp+1, pclath, cstack
  2443 ;; Tracked objects:
  2444 ;;		On entry : 0/0
  2445 ;;		On exit  : 0/0
  2446 ;;		Unchanged: 0/0
  2447 ;; Data sizes:     COMMON   BANK0   BANK1   BANK3   BANK2
  2448 ;;      Params:         0       9       0       0       0
  2449 ;;      Locals:         0       9       0       0       0
  2450 ;;      Temps:          0       3       0       0       0
  2451 ;;      Totals:         0      21       0       0       0
  2452 ;;Total ram usage:       21 bytes
  2453 ;; Hardware stack levels used:    1
  2454 ;; Hardware stack levels required when called:    2
  2455 ;; This function calls:
  2456 ;;		___lwdiv
  2457 ;;		___lwmod
  2458 ;; This function is called by:
  2459 ;;		_sendMessage
  2460 ;; This function uses a non-reentrant model
  2461 ;;
  2462                           
  2463                           
  2464                           ;psect for function _sprintf
  2465  064B                     _sprintf:
  2466                           
  2467                           ;incstack = 0
  2468                           ; Regs used in _sprintf: [wreg-fsr0h+status,2+status,0+btemp+1+pclath+cstack]
  2469                           ;sprintf@sp stored from wreg
  2470  064B  1283               	bcf	3,5	;RP0=0, select bank0
  2471  064C  1303               	bcf	3,6	;RP1=0, select bank0
  2472  064D  00BE               	movwf	sprintf@sp
  2473  064E                     l2916:
  2474                           
  2475                           ;C:\Program Files (x86)\Microchip\MPLABX\v2.20\pic\sources\c90\common\doprnt.c: 505: spr
      +                          intf(char * sp, const char * f, ...);C:\Program Files (x86)\Microchip\MPLABX\v2.20\pic\s
      +                          ources\c90\common\doprnt.c: 506: {;C:\Program Files (x86)\Microchip\MPLABX\v2.20\pic\sou
      +                          rces\c90\common\doprnt.c: 507:  va_list ap;;C:\Program Files (x86)\Microchip\MPLABX\v2.2
      +                          0\pic\sources\c90\common\doprnt.c: 512:  char c;;C:\Program Files (x86)\Microchip\MPLABX
      +                          \v2.20\pic\sources\c90\common\doprnt.c: 521:  signed char prec;;C:\Program Files (x86)\M
      +                          icrochip\MPLABX\v2.20\pic\sources\c90\common\doprnt.c: 525:  unsigned char flag;
  2476  064E  302C               	movlw	(low ((?_sprintf| 0+1)))& (0+255)
  2477  064F  00FF               	movwf	btemp+1
  2478  0650  087F               	movf	btemp+1,w
  2479  0651  00B9               	movwf	sprintf@ap
  2480                           
  2481                           ;C:\Program Files (x86)\Microchip\MPLABX\v2.20\pic\sources\c90\common\doprnt.c: 553:  wh
      +                          ile((c = *f++)) {
  2482  0652  2F62               	goto	l2986
  2483  0653                     l2918:
  2484                           
  2485                           ;C:\Program Files (x86)\Microchip\MPLABX\v2.20\pic\sources\c90\common\doprnt.c: 555:   i
      +                          f(c != '%')
  2486  0653  3025               	movlw	37
  2487  0654  063F               	xorwf	sprintf@c,w
  2488  0655  1903               	btfsc	3,2
  2489  0656  2E58               	goto	u3611
  2490  0657  2E59               	goto	u3610
  2491  0658                     u3611:
  2492  0658  2E65               	goto	l2924
  2493  0659                     u3610:
  2494  0659                     l2920:
  2495                           
  2496                           ;C:\Program Files (x86)\Microchip\MPLABX\v2.20\pic\sources\c90\common\doprnt.c: 557:   {
      +                          ;C:\Program Files (x86)\Microchip\MPLABX\v2.20\pic\sources\c90\common\doprnt.c: 558:    
      +                          ((*sp++ = (c)));
  2497  0659  083F               	movf	sprintf@c,w
  2498  065A  00FF               	movwf	btemp+1
  2499  065B  083E               	movf	sprintf@sp,w
  2500  065C  0084               	movwf	4
  2501  065D  087F               	movf	btemp+1,w
  2502  065E  1783               	bsf	3,7	;select IRP bank2
  2503  065F  0080               	movwf	0
  2504  0660                     l2922:
  2505  0660  3001               	movlw	1
  2506  0661  00FF               	movwf	btemp+1
  2507  0662  087F               	movf	btemp+1,w
  2508  0663  07BE               	addwf	sprintf@sp,f
  2509                           
  2510                           ;C:\Program Files (x86)\Microchip\MPLABX\v2.20\pic\sources\c90\common\doprnt.c: 559:    
      +                          continue;
  2511  0664  2F62               	goto	l2986
  2512  0665                     l2924:
  2513                           
  2514                           ;C:\Program Files (x86)\Microchip\MPLABX\v2.20\pic\sources\c90\common\doprnt.c: 565:   f
      +                          lag = 0;
  2515  0665  01B7               	clrf	sprintf@flag
  2516                           
  2517                           ;C:\Program Files (x86)\Microchip\MPLABX\v2.20\pic\sources\c90\common\doprnt.c: 661:   s
      +                          witch(c = *f++) {
  2518  0666  2EA7               	goto	l2944
  2519  0667                     l2926:
  2520                           
  2521                           ;C:\Program Files (x86)\Microchip\MPLABX\v2.20\pic\sources\c90\common\doprnt.c: 760:    
      +                           cp = (*(const char * *)__va_arg(*(const char * **)ap, (const char *)0));
  2522  0667  0839               	movf	sprintf@ap,w
  2523  0668  0084               	movwf	4
  2524  0669  1383               	bcf	3,7	;select IRP bank0
  2525  066A  0800               	movf	0,w
  2526  066B  00BA               	movwf	sprintf@cp
  2527  066C  0A84               	incf	4,f
  2528  066D  0800               	movf	0,w
  2529  066E  0384               	decf	4,f
  2530  066F  00BB               	movwf	sprintf@cp+1
  2531  0670                     l2928:
  2532  0670  3002               	movlw	2
  2533  0671  00FF               	movwf	btemp+1
  2534  0672  087F               	movf	btemp+1,w
  2535  0673  07B9               	addwf	sprintf@ap,f
  2536  0674                     l2930:
  2537                           
  2538                           ;C:\Program Files (x86)\Microchip\MPLABX\v2.20\pic\sources\c90\common\doprnt.c: 766:    
      +                          if(!cp)
  2539  0674  083A               	movf	sprintf@cp,w
  2540  0675  043B               	iorwf	sprintf@cp+1,w
  2541  0676  1D03               	btfss	3,2
  2542  0677  2E79               	goto	u3621
  2543  0678  2E7A               	goto	u3620
  2544  0679                     u3621:
  2545  0679  2E98               	goto	l2940
  2546  067A                     u3620:
  2547  067A                     l2932:
  2548                           
  2549                           ;C:\Program Files (x86)\Microchip\MPLABX\v2.20\pic\sources\c90\common\doprnt.c: 767:    
      +                           cp = "(null)";
  2550  067A  303D               	movlw	(low ((STR_7-__stringbase)| (0+32768)))& (0+255)
  2551  067B  00BA               	movwf	sprintf@cp
  2552  067C  3080               	movlw	128
  2553  067D  00BB               	movwf	sprintf@cp+1
  2554  067E  2E98               	goto	l2940
  2555  067F                     l2934:
  2556                           
  2557                           ;C:\Program Files (x86)\Microchip\MPLABX\v2.20\pic\sources\c90\common\doprnt.c: 804:    
      +                           ((*sp++ = (*cp++)));
  2558  067F  083B               	movf	sprintf@cp+1,w
  2559  0680  00FF               	movwf	btemp+1
  2560  0681  083A               	movf	sprintf@cp,w
  2561  0682  0084               	movwf	4
  2562  0683  120A  158A  2000  120A  118A  	fcall	stringtab
  2563  0688  00FF               	movwf	btemp+1
  2564  0689  083E               	movf	sprintf@sp,w
  2565  068A  0084               	movwf	4
  2566  068B  087F               	movf	btemp+1,w
  2567  068C  1783               	bsf	3,7	;select IRP bank2
  2568  068D  0080               	movwf	0
  2569  068E                     l2936:
  2570  068E  3001               	movlw	1
  2571  068F  07BA               	addwf	sprintf@cp,f
  2572  0690  1803               	skipnc
  2573  0691  0ABB               	incf	sprintf@cp+1,f
  2574  0692  3000               	movlw	0
  2575  0693  07BB               	addwf	sprintf@cp+1,f
  2576  0694                     l2938:
  2577  0694  3001               	movlw	1
  2578  0695  00FF               	movwf	btemp+1
  2579  0696  087F               	movf	btemp+1,w
  2580  0697  07BE               	addwf	sprintf@sp,f
  2581  0698                     l2940:
  2582                           
  2583                           ;C:\Program Files (x86)\Microchip\MPLABX\v2.20\pic\sources\c90\common\doprnt.c: 803:    
      +                          while(*cp)
  2584  0698  083B               	movf	sprintf@cp+1,w
  2585  0699  00FF               	movwf	btemp+1
  2586  069A  083A               	movf	sprintf@cp,w
  2587  069B  0084               	movwf	4
  2588  069C  120A  158A  2000  120A  118A  	fcall	stringtab
  2589  06A1  3A00               	xorlw	0
  2590  06A2  1D03               	skipz
  2591  06A3  2EA5               	goto	u3631
  2592  06A4  2EA6               	goto	u3630
  2593  06A5                     u3631:
  2594  06A5  2E7F               	goto	l2934
  2595  06A6                     u3630:
  2596  06A6  2F62               	goto	l2986
  2597  06A7                     l2944:
  2598  06A7  3001               	movlw	1
  2599  06A8  07AB               	addwf	sprintf@f,f
  2600  06A9  30FF               	movlw	-1
  2601  06AA  072B               	addwf	sprintf@f,w
  2602  06AB  0084               	movwf	4
  2603  06AC  120A  158A  200A  120A  118A  	fcall	stringdir
  2604  06B1  00BF               	movwf	sprintf@c
  2605  06B2  00B4               	movwf	??_sprintf
  2606  06B3  01B5               	clrf	??_sprintf+1
  2607                           
  2608                           ; Switch on 2 bytes has been partitioned into a top level switch of size 1, and 1 sub-sw
      +                          itches
  2609                           ; Switch size 1, requested type "simple"
  2610                           ; Number of cases is 1, Range of values is 0 to 0
  2611                           ; switch strategies available:
  2612                           ; Name         Instructions Cycles
  2613                           ; simple_byte            4     3 (average)
  2614                           ; direct_byte           11     8 (fixed)
  2615                           ; jumptable            260     6 (fixed)
  2616                           ;	Chosen strategy is simple_byte
  2617  06B4  0835               	movf	??_sprintf+1,w
  2618  06B5  3A00               	xorlw	0	; case 0
  2619  06B6  1903               	skipnz
  2620  06B7  2EB9               	goto	l3554
  2621  06B8  2F62               	goto	l2986
  2622  06B9                     l3554:
  2623                           
  2624                           ; Switch size 1, requested type "simple"
  2625                           ; Number of cases is 4, Range of values is 0 to 115
  2626                           ; switch strategies available:
  2627                           ; Name         Instructions Cycles
  2628                           ; simple_byte           13     7 (average)
  2629                           ; jumptable            260     6 (fixed)
  2630                           ;	Chosen strategy is simple_byte
  2631  06B9  0834               	movf	??_sprintf,w
  2632  06BA  3A00               	xorlw	0	; case 0
  2633  06BB  1903               	skipnz
  2634  06BC  2F74               	goto	l2988
  2635  06BD  3A64               	xorlw	100	; case 100
  2636  06BE  1903               	skipnz
  2637  06BF  2EC7               	goto	l2946
  2638  06C0  3A0D               	xorlw	13	; case 105
  2639  06C1  1903               	skipnz
  2640  06C2  2EC7               	goto	l2946
  2641  06C3  3A1A               	xorlw	26	; case 115
  2642  06C4  1903               	skipnz
  2643  06C5  2E67               	goto	l2926
  2644  06C6  2F62               	goto	l2986
  2645  06C7                     l2946:
  2646                           
  2647                           ;C:\Program Files (x86)\Microchip\MPLABX\v2.20\pic\sources\c90\common\doprnt.c: 1279:   
      +                          {;C:\Program Files (x86)\Microchip\MPLABX\v2.20\pic\sources\c90\common\doprnt.c: 1285:  
      +                             val = (unsigned int)(*(int *)__va_arg(*(int **)ap, (int)0));
  2648  06C7  0839               	movf	sprintf@ap,w
  2649  06C8  0084               	movwf	4
  2650  06C9  1383               	bcf	3,7	;select IRP bank0
  2651  06CA  0800               	movf	0,w
  2652  06CB  00BC               	movwf	sprintf@val
  2653  06CC  0A84               	incf	4,f
  2654  06CD  0800               	movf	0,w
  2655  06CE  00BD               	movwf	sprintf@val+1
  2656  06CF                     l2948:
  2657  06CF  3002               	movlw	2
  2658  06D0  00FF               	movwf	btemp+1
  2659  06D1  087F               	movf	btemp+1,w
  2660  06D2  07B9               	addwf	sprintf@ap,f
  2661  06D3                     l2950:
  2662                           
  2663                           ;C:\Program Files (x86)\Microchip\MPLABX\v2.20\pic\sources\c90\common\doprnt.c: 1287:   
      +                           if((int)val < 0) {
  2664  06D3  1FBD               	btfss	sprintf@val+1,7
  2665  06D4  2ED6               	goto	u3641
  2666  06D5  2ED7               	goto	u3640
  2667  06D6                     u3641:
  2668  06D6  2EE0               	goto	l2956
  2669  06D7                     u3640:
  2670  06D7                     l2952:
  2671                           
  2672                           ;C:\Program Files (x86)\Microchip\MPLABX\v2.20\pic\sources\c90\common\doprnt.c: 1288:   
      +                            flag |= 0x03;
  2673  06D7  3003               	movlw	3
  2674  06D8  00FF               	movwf	btemp+1
  2675  06D9  087F               	movf	btemp+1,w
  2676  06DA  04B7               	iorwf	sprintf@flag,f
  2677  06DB                     l2954:
  2678                           
  2679                           ;C:\Program Files (x86)\Microchip\MPLABX\v2.20\pic\sources\c90\common\doprnt.c: 1289:   
      +                            val = -val;
  2680  06DB  09BC               	comf	sprintf@val,f
  2681  06DC  09BD               	comf	sprintf@val+1,f
  2682  06DD  0ABC               	incf	sprintf@val,f
  2683  06DE  1903               	skipnz
  2684  06DF  0ABD               	incf	sprintf@val+1,f
  2685  06E0                     l2956:
  2686                           
  2687                           ;C:\Program Files (x86)\Microchip\MPLABX\v2.20\pic\sources\c90\common\doprnt.c: 1292:   
      +                          };C:\Program Files (x86)\Microchip\MPLABX\v2.20\pic\sources\c90\common\doprnt.c: 1331:  
      +                            for(c = 1 ; c != sizeof dpowers/sizeof dpowers[0] ; c++)
  2688  06E0  01BF               	clrf	sprintf@c
  2689  06E1  0ABF               	incf	sprintf@c,f
  2690  06E2                     l2962:
  2691                           
  2692                           ;C:\Program Files (x86)\Microchip\MPLABX\v2.20\pic\sources\c90\common\doprnt.c: 1332:   
      +                            if(val < dpowers[c])
  2693  06E2  083F               	movf	sprintf@c,w
  2694  06E3  00B4               	movwf	??_sprintf
  2695  06E4  0734               	addwf	??_sprintf,w
  2696  06E5  3E01               	addlw	low ((_dpowers-__stringbase)| (0+32768))
  2697  06E6  0084               	movwf	4
  2698  06E7  120A  158A  200A  120A  118A  	fcall	stringdir
  2699  06EC  00B5               	movwf	??_sprintf+1
  2700  06ED  120A  158A  200A  120A  118A  	fcall	stringdir
  2701  06F2  00B6               	movwf	??_sprintf+2
  2702  06F3  0836               	movf	??_sprintf+2,w
  2703  06F4  023D               	subwf	sprintf@val+1,w
  2704  06F5  1D03               	skipz
  2705  06F6  2EF9               	goto	u3655
  2706  06F7  0835               	movf	??_sprintf+1,w
  2707  06F8  023C               	subwf	sprintf@val,w
  2708  06F9                     u3655:
  2709  06F9  1803               	skipnc
  2710  06FA  2EFC               	goto	u3651
  2711  06FB  2EFD               	goto	u3650
  2712  06FC                     u3651:
  2713  06FC  2EFE               	goto	l2966
  2714  06FD                     u3650:
  2715  06FD  2F08               	goto	l2970
  2716  06FE                     l2966:
  2717  06FE  3001               	movlw	1
  2718  06FF  00FF               	movwf	btemp+1
  2719  0700  087F               	movf	btemp+1,w
  2720  0701  07BF               	addwf	sprintf@c,f
  2721  0702                     l2968:
  2722  0702  3005               	movlw	5
  2723  0703  063F               	xorwf	sprintf@c,w
  2724  0704  1D03               	btfss	3,2
  2725  0705  2F07               	goto	u3661
  2726  0706  2F08               	goto	u3660
  2727  0707                     u3661:
  2728  0707  2EE2               	goto	l2962
  2729  0708                     u3660:
  2730  0708                     l2970:
  2731                           
  2732                           ;C:\Program Files (x86)\Microchip\MPLABX\v2.20\pic\sources\c90\common\doprnt.c: 1448:   
      +                          {;C:\Program Files (x86)\Microchip\MPLABX\v2.20\pic\sources\c90\common\doprnt.c: 1464:  
      +                            if(flag & 0x03)
  2733  0708  0837               	movf	sprintf@flag,w
  2734  0709  3903               	andlw	3
  2735  070A  1903               	btfsc	3,2
  2736  070B  2F0D               	goto	u3671
  2737  070C  2F0E               	goto	u3670
  2738  070D                     u3671:
  2739  070D  2F19               	goto	l2976
  2740  070E                     u3670:
  2741  070E                     l2972:
  2742                           
  2743                           ;C:\Program Files (x86)\Microchip\MPLABX\v2.20\pic\sources\c90\common\doprnt.c: 1465:   
      +                            ((*sp++ = ('-')));
  2744  070E  302D               	movlw	45
  2745  070F  00FF               	movwf	btemp+1
  2746  0710  083E               	movf	sprintf@sp,w
  2747  0711  0084               	movwf	4
  2748  0712  087F               	movf	btemp+1,w
  2749  0713  1783               	bsf	3,7	;select IRP bank2
  2750  0714  0080               	movwf	0
  2751  0715                     l2974:
  2752  0715  3001               	movlw	1
  2753  0716  00FF               	movwf	btemp+1
  2754  0717  087F               	movf	btemp+1,w
  2755  0718  07BE               	addwf	sprintf@sp,f
  2756  0719                     l2976:
  2757                           
  2758                           ;C:\Program Files (x86)\Microchip\MPLABX\v2.20\pic\sources\c90\common\doprnt.c: 1495:   
      +                          };C:\Program Files (x86)\Microchip\MPLABX\v2.20\pic\sources\c90\common\doprnt.c: 1498:  
      +                           prec = c;
  2759  0719  083F               	movf	sprintf@c,w
  2760  071A  00FF               	movwf	btemp+1
  2761  071B  087F               	movf	btemp+1,w
  2762  071C  00B8               	movwf	sprintf@prec
  2763                           
  2764                           ;C:\Program Files (x86)\Microchip\MPLABX\v2.20\pic\sources\c90\common\doprnt.c: 1500:   
      +                          while(prec--) {
  2765  071D  2F59               	goto	l2984
  2766  071E                     l2978:
  2767                           
  2768                           ;C:\Program Files (x86)\Microchip\MPLABX\v2.20\pic\sources\c90\common\doprnt.c: 1504:   
      +                           {;C:\Program Files (x86)\Microchip\MPLABX\v2.20\pic\sources\c90\common\doprnt.c: 1515: 
      +                              c = (val / dpowers[(unsigned char)prec]) % 10 + '0';
  2769  071E  300A               	movlw	10
  2770  071F  00A7               	movwf	___lwmod@divisor
  2771  0720  3000               	movlw	0
  2772  0721  00A8               	movwf	___lwmod@divisor+1
  2773  0722  0838               	movf	sprintf@prec,w
  2774  0723  00B4               	movwf	??_sprintf
  2775  0724  0734               	addwf	??_sprintf,w
  2776  0725  3E01               	addlw	low ((_dpowers-__stringbase)| (0+32768))
  2777  0726  0084               	movwf	4
  2778  0727  120A  158A  200A  120A  118A  	fcall	stringdir
  2779  072C  00A0               	movwf	___lwdiv@divisor
  2780  072D  120A  158A  200A  120A  118A  	fcall	stringdir
  2781  0732  00A1               	movwf	___lwdiv@divisor+1
  2782  0733  083D               	movf	sprintf@val+1,w
  2783  0734  00A3               	movwf	___lwdiv@dividend+1
  2784  0735  083C               	movf	sprintf@val,w
  2785  0736  00A2               	movwf	___lwdiv@dividend
  2786  0737  120A  158A  22FF  120A  118A  	fcall	___lwdiv
  2787  073C  1283               	bcf	3,5	;RP0=0, select bank0
  2788  073D  1303               	bcf	3,6	;RP1=0, select bank0
  2789  073E  0821               	movf	?___lwdiv+1,w
  2790  073F  00AA               	movwf	___lwmod@dividend+1
  2791  0740  0820               	movf	?___lwdiv,w
  2792  0741  00A9               	movwf	___lwmod@dividend
  2793  0742  120A  158A  2283  120A  118A  	fcall	___lwmod
  2794  0747  1283               	bcf	3,5	;RP0=0, select bank0
  2795  0748  1303               	bcf	3,6	;RP1=0, select bank0
  2796  0749  0827               	movf	?___lwmod,w
  2797  074A  3E30               	addlw	48
  2798  074B  00FF               	movwf	btemp+1
  2799  074C  087F               	movf	btemp+1,w
  2800  074D  00BF               	movwf	sprintf@c
  2801  074E                     l2980:
  2802                           
  2803                           ;C:\Program Files (x86)\Microchip\MPLABX\v2.20\pic\sources\c90\common\doprnt.c: 1549:   
      +                           };C:\Program Files (x86)\Microchip\MPLABX\v2.20\pic\sources\c90\common\doprnt.c: 1550: 
      +                             ((*sp++ = (c)));
  2804  074E  083F               	movf	sprintf@c,w
  2805  074F  00FF               	movwf	btemp+1
  2806  0750  083E               	movf	sprintf@sp,w
  2807  0751  0084               	movwf	4
  2808  0752  087F               	movf	btemp+1,w
  2809  0753  1783               	bsf	3,7	;select IRP bank2
  2810  0754  0080               	movwf	0
  2811  0755                     l2982:
  2812  0755  3001               	movlw	1
  2813  0756  00FF               	movwf	btemp+1
  2814  0757  087F               	movf	btemp+1,w
  2815  0758  07BE               	addwf	sprintf@sp,f
  2816  0759                     l2984:
  2817                           
  2818                           ;C:\Program Files (x86)\Microchip\MPLABX\v2.20\pic\sources\c90\common\doprnt.c: 1500:   
      +                          while(prec--) {
  2819  0759  30FF               	movlw	255
  2820  075A  00FF               	movwf	btemp+1
  2821  075B  087F               	movf	btemp+1,w
  2822  075C  07B8               	addwf	sprintf@prec,f
  2823  075D  0A38               	incf	sprintf@prec,w
  2824  075E  1D03               	btfss	3,2
  2825  075F  2F61               	goto	u3681
  2826  0760  2F62               	goto	u3680
  2827  0761                     u3681:
  2828  0761  2F1E               	goto	l2978
  2829  0762                     u3680:
  2830  0762                     l2986:
  2831                           
  2832                           ;C:\Program Files (x86)\Microchip\MPLABX\v2.20\pic\sources\c90\common\doprnt.c: 553:  wh
      +                          ile((c = *f++)) {
  2833  0762  3001               	movlw	1
  2834  0763  07AB               	addwf	sprintf@f,f
  2835  0764  30FF               	movlw	-1
  2836  0765  072B               	addwf	sprintf@f,w
  2837  0766  0084               	movwf	4
  2838  0767  120A  158A  200A  120A  118A  	fcall	stringdir
  2839  076C  00FF               	movwf	btemp+1
  2840  076D  087F               	movf	btemp+1,w
  2841  076E  00BF               	movwf	sprintf@c
  2842  076F  083F               	movf	sprintf@c,w
  2843  0770  1D03               	btfss	3,2
  2844  0771  2F73               	goto	u3691
  2845  0772  2F74               	goto	u3690
  2846  0773                     u3691:
  2847  0773  2E53               	goto	l2918
  2848  0774                     u3690:
  2849  0774                     l2988:
  2850                           
  2851                           ;C:\Program Files (x86)\Microchip\MPLABX\v2.20\pic\sources\c90\common\doprnt.c: 1564:  *
      +                          sp = 0;
  2852  0774  083E               	movf	sprintf@sp,w
  2853  0775  0084               	movwf	4
  2854  0776  1783               	bsf	3,7	;select IRP bank2
  2855  0777  0180               	clrf	0
  2856  0778                     l396:
  2857  0778  0008               	return
  2858  0779                     __end_of_sprintf:
  2859                           
  2860                           	psect	text7
  2861  0A83                     __ptext7:	
  2862 ;; *************** function ___lwmod *****************
  2863 ;; Defined at:
  2864 ;;		line 5 in file "C:\Program Files (x86)\Microchip\MPLABX\v2.20\pic\sources\c90\common\lwmod.c"
  2865 ;; Parameters:    Size  Location     Type
  2866 ;;  divisor         2    7[BANK0 ] unsigned int 
  2867 ;;  dividend        2    9[BANK0 ] unsigned int 
  2868 ;; Auto vars:     Size  Location     Type
  2869 ;;  counter         1    4[COMMON] unsigned char 
  2870 ;; Return value:  Size  Location     Type
  2871 ;;                  2    7[BANK0 ] unsigned int 
  2872 ;; Registers used:
  2873 ;;		wreg, status,2, status,0, btemp+1
  2874 ;; Tracked objects:
  2875 ;;		On entry : 0/0
  2876 ;;		On exit  : 0/0
  2877 ;;		Unchanged: 0/0
  2878 ;; Data sizes:     COMMON   BANK0   BANK1   BANK3   BANK2
  2879 ;;      Params:         0       4       0       0       0
  2880 ;;      Locals:         1       0       0       0       0
  2881 ;;      Temps:          0       0       0       0       0
  2882 ;;      Totals:         1       4       0       0       0
  2883 ;;Total ram usage:        5 bytes
  2884 ;; Hardware stack levels used:    1
  2885 ;; Hardware stack levels required when called:    1
  2886 ;; This function calls:
  2887 ;;		Nothing
  2888 ;; This function is called by:
  2889 ;;		_sprintf
  2890 ;; This function uses a non-reentrant model
  2891 ;;
  2892                           
  2893                           
  2894                           ;psect for function ___lwmod
  2895  0A83                     ___lwmod:
  2896  0A83                     l1924:	
  2897                           ;incstack = 0
  2898                           ; Regs used in ___lwmod: [wreg+status,2+status,0+btemp+1]
  2899                           
  2900  0A83  1283               	bcf	3,5	;RP0=0, select bank0
  2901  0A84  1303               	bcf	3,6	;RP1=0, select bank0
  2902  0A85  0827               	movf	___lwmod@divisor,w
  2903  0A86  0428               	iorwf	___lwmod@divisor+1,w
  2904  0A87  1903               	btfsc	3,2
  2905  0A88  2A8A               	goto	u1851
  2906  0A89  2A8B               	goto	u1850
  2907  0A8A                     u1851:
  2908  0A8A  2ABA               	goto	l1942
  2909  0A8B                     u1850:
  2910  0A8B                     l1926:
  2911  0A8B  01F4               	clrf	___lwmod@counter
  2912  0A8C  0AF4               	incf	___lwmod@counter,f
  2913  0A8D  2A99               	goto	l1932
  2914  0A8E                     l1928:
  2915  0A8E  3001               	movlw	1
  2916  0A8F                     u1865:
  2917  0A8F  1003               	clrc
  2918  0A90  0DA7               	rlf	___lwmod@divisor,f
  2919  0A91  0DA8               	rlf	___lwmod@divisor+1,f
  2920  0A92  3EFF               	addlw	-1
  2921  0A93  1D03               	skipz
  2922  0A94  2A8F               	goto	u1865
  2923  0A95                     l1930:
  2924  0A95  3001               	movlw	1
  2925  0A96  00FF               	movwf	btemp+1
  2926  0A97  087F               	movf	btemp+1,w
  2927  0A98  07F4               	addwf	___lwmod@counter,f
  2928  0A99                     l1932:
  2929  0A99  1FA8               	btfss	___lwmod@divisor+1,7
  2930  0A9A  2A9C               	goto	u1871
  2931  0A9B  2A9D               	goto	u1870
  2932  0A9C                     u1871:
  2933  0A9C  2A8E               	goto	l1928
  2934  0A9D                     u1870:
  2935  0A9D                     l1934:
  2936  0A9D  0828               	movf	___lwmod@divisor+1,w
  2937  0A9E  022A               	subwf	___lwmod@dividend+1,w
  2938  0A9F  1D03               	skipz
  2939  0AA0  2AA3               	goto	u1885
  2940  0AA1  0827               	movf	___lwmod@divisor,w
  2941  0AA2  0229               	subwf	___lwmod@dividend,w
  2942  0AA3                     u1885:
  2943  0AA3  1C03               	skipc
  2944  0AA4  2AA6               	goto	u1881
  2945  0AA5  2AA7               	goto	u1880
  2946  0AA6                     u1881:
  2947  0AA6  2AAD               	goto	l1938
  2948  0AA7                     u1880:
  2949  0AA7                     l1936:
  2950  0AA7  0827               	movf	___lwmod@divisor,w
  2951  0AA8  02A9               	subwf	___lwmod@dividend,f
  2952  0AA9  0828               	movf	___lwmod@divisor+1,w
  2953  0AAA  1C03               	skipc
  2954  0AAB  03AA               	decf	___lwmod@dividend+1,f
  2955  0AAC  02AA               	subwf	___lwmod@dividend+1,f
  2956  0AAD                     l1938:
  2957  0AAD  3001               	movlw	1
  2958  0AAE                     u1895:
  2959  0AAE  1003               	clrc
  2960  0AAF  0CA8               	rrf	___lwmod@divisor+1,f
  2961  0AB0  0CA7               	rrf	___lwmod@divisor,f
  2962  0AB1  3EFF               	addlw	-1
  2963  0AB2  1D03               	skipz
  2964  0AB3  2AAE               	goto	u1895
  2965  0AB4                     l1940:
  2966  0AB4  3001               	movlw	1
  2967  0AB5  02F4               	subwf	___lwmod@counter,f
  2968  0AB6  1D03               	btfss	3,2
  2969  0AB7  2AB9               	goto	u1901
  2970  0AB8  2ABA               	goto	u1900
  2971  0AB9                     u1901:
  2972  0AB9  2A9D               	goto	l1934
  2973  0ABA                     u1900:
  2974  0ABA                     l1942:
  2975  0ABA  082A               	movf	___lwmod@dividend+1,w
  2976  0ABB  00A8               	movwf	?___lwmod+1
  2977  0ABC  0829               	movf	___lwmod@dividend,w
  2978  0ABD  00A7               	movwf	?___lwmod
  2979  0ABE                     l682:
  2980  0ABE  0008               	return
  2981  0ABF                     __end_of___lwmod:
  2982                           
  2983                           	psect	text8
  2984  0AFF                     __ptext8:	
  2985 ;; *************** function ___lwdiv *****************
  2986 ;; Defined at:
  2987 ;;		line 5 in file "C:\Program Files (x86)\Microchip\MPLABX\v2.20\pic\sources\c90\common\lwdiv.c"
  2988 ;; Parameters:    Size  Location     Type
  2989 ;;  divisor         2    0[BANK0 ] unsigned int 
  2990 ;;  dividend        2    2[BANK0 ] unsigned int 
  2991 ;; Auto vars:     Size  Location     Type
  2992 ;;  quotient        2    5[BANK0 ] unsigned int 
  2993 ;;  counter         1    4[BANK0 ] unsigned char 
  2994 ;; Return value:  Size  Location     Type
  2995 ;;                  2    0[BANK0 ] unsigned int 
  2996 ;; Registers used:
  2997 ;;		wreg, status,2, status,0, btemp+1
  2998 ;; Tracked objects:
  2999 ;;		On entry : 0/0
  3000 ;;		On exit  : 0/0
  3001 ;;		Unchanged: 0/0
  3002 ;; Data sizes:     COMMON   BANK0   BANK1   BANK3   BANK2
  3003 ;;      Params:         0       4       0       0       0
  3004 ;;      Locals:         0       3       0       0       0
  3005 ;;      Temps:          0       0       0       0       0
  3006 ;;      Totals:         0       7       0       0       0
  3007 ;;Total ram usage:        7 bytes
  3008 ;; Hardware stack levels used:    1
  3009 ;; Hardware stack levels required when called:    1
  3010 ;; This function calls:
  3011 ;;		Nothing
  3012 ;; This function is called by:
  3013 ;;		_sprintf
  3014 ;; This function uses a non-reentrant model
  3015 ;;
  3016                           
  3017                           
  3018                           ;psect for function ___lwdiv
  3019  0AFF                     ___lwdiv:
  3020  0AFF                     l2868:	
  3021                           ;incstack = 0
  3022                           ; Regs used in ___lwdiv: [wreg+status,2+status,0+btemp+1]
  3023                           
  3024  0AFF  1283               	bcf	3,5	;RP0=0, select bank0
  3025  0B00  1303               	bcf	3,6	;RP1=0, select bank0
  3026  0B01  01A5               	clrf	___lwdiv@quotient
  3027  0B02  01A6               	clrf	___lwdiv@quotient+1
  3028  0B03                     l2870:
  3029  0B03  0820               	movf	___lwdiv@divisor,w
  3030  0B04  0421               	iorwf	___lwdiv@divisor+1,w
  3031  0B05  1903               	btfsc	3,2
  3032  0B06  2B08               	goto	u3481
  3033  0B07  2B09               	goto	u3480
  3034  0B08                     u3481:
  3035  0B08  2B40               	goto	l2890
  3036  0B09                     u3480:
  3037  0B09                     l2872:
  3038  0B09  01A4               	clrf	___lwdiv@counter
  3039  0B0A  0AA4               	incf	___lwdiv@counter,f
  3040  0B0B  2B17               	goto	l2878
  3041  0B0C                     l2874:
  3042  0B0C  3001               	movlw	1
  3043  0B0D                     u3495:
  3044  0B0D  1003               	clrc
  3045  0B0E  0DA0               	rlf	___lwdiv@divisor,f
  3046  0B0F  0DA1               	rlf	___lwdiv@divisor+1,f
  3047  0B10  3EFF               	addlw	-1
  3048  0B11  1D03               	skipz
  3049  0B12  2B0D               	goto	u3495
  3050  0B13                     l2876:
  3051  0B13  3001               	movlw	1
  3052  0B14  00FF               	movwf	btemp+1
  3053  0B15  087F               	movf	btemp+1,w
  3054  0B16  07A4               	addwf	___lwdiv@counter,f
  3055  0B17                     l2878:
  3056  0B17  1FA1               	btfss	___lwdiv@divisor+1,7
  3057  0B18  2B1A               	goto	u3501
  3058  0B19  2B1B               	goto	u3500
  3059  0B1A                     u3501:
  3060  0B1A  2B0C               	goto	l2874
  3061  0B1B                     u3500:
  3062  0B1B                     l2880:
  3063  0B1B  3001               	movlw	1
  3064  0B1C                     u3515:
  3065  0B1C  1003               	clrc
  3066  0B1D  0DA5               	rlf	___lwdiv@quotient,f
  3067  0B1E  0DA6               	rlf	___lwdiv@quotient+1,f
  3068  0B1F  3EFF               	addlw	-1
  3069  0B20  1D03               	skipz
  3070  0B21  2B1C               	goto	u3515
  3071  0B22  0821               	movf	___lwdiv@divisor+1,w
  3072  0B23  0223               	subwf	___lwdiv@dividend+1,w
  3073  0B24  1D03               	skipz
  3074  0B25  2B28               	goto	u3525
  3075  0B26  0820               	movf	___lwdiv@divisor,w
  3076  0B27  0222               	subwf	___lwdiv@dividend,w
  3077  0B28                     u3525:
  3078  0B28  1C03               	skipc
  3079  0B29  2B2B               	goto	u3521
  3080  0B2A  2B2C               	goto	u3520
  3081  0B2B                     u3521:
  3082  0B2B  2B33               	goto	l2886
  3083  0B2C                     u3520:
  3084  0B2C                     l2882:
  3085  0B2C  0820               	movf	___lwdiv@divisor,w
  3086  0B2D  02A2               	subwf	___lwdiv@dividend,f
  3087  0B2E  0821               	movf	___lwdiv@divisor+1,w
  3088  0B2F  1C03               	skipc
  3089  0B30  03A3               	decf	___lwdiv@dividend+1,f
  3090  0B31  02A3               	subwf	___lwdiv@dividend+1,f
  3091  0B32                     l2884:
  3092  0B32  1425               	bsf	___lwdiv@quotient,0
  3093  0B33                     l2886:
  3094  0B33  3001               	movlw	1
  3095  0B34                     u3535:
  3096  0B34  1003               	clrc
  3097  0B35  0CA1               	rrf	___lwdiv@divisor+1,f
  3098  0B36  0CA0               	rrf	___lwdiv@divisor,f
  3099  0B37  3EFF               	addlw	-1
  3100  0B38  1D03               	skipz
  3101  0B39  2B34               	goto	u3535
  3102  0B3A                     l2888:
  3103  0B3A  3001               	movlw	1
  3104  0B3B  02A4               	subwf	___lwdiv@counter,f
  3105  0B3C  1D03               	btfss	3,2
  3106  0B3D  2B3F               	goto	u3541
  3107  0B3E  2B40               	goto	u3540
  3108  0B3F                     u3541:
  3109  0B3F  2B1B               	goto	l2880
  3110  0B40                     u3540:
  3111  0B40                     l2890:
  3112  0B40  0826               	movf	___lwdiv@quotient+1,w
  3113  0B41  00A1               	movwf	?___lwdiv+1
  3114  0B42  0825               	movf	___lwdiv@quotient,w
  3115  0B43  00A0               	movwf	?___lwdiv
  3116  0B44                     l672:
  3117  0B44  0008               	return
  3118  0B45                     __end_of___lwdiv:
  3119                           
  3120                           	psect	text9
  3121  0A12                     __ptext9:	
  3122 ;; *************** function _i2cSetup *****************
  3123 ;; Defined at:
  3124 ;;		line 13 in file "EEPROM_ext.c"
  3125 ;; Parameters:    Size  Location     Type
  3126 ;;  baud            4   13[BANK0 ] const unsigned long 
  3127 ;; Auto vars:     Size  Location     Type
  3128 ;;		None
  3129 ;; Return value:  Size  Location     Type
  3130 ;;                  1    wreg      void 
  3131 ;; Registers used:
  3132 ;;		wreg, status,2, status,0, btemp+1, pclath, cstack
  3133 ;; Tracked objects:
  3134 ;;		On entry : 0/0
  3135 ;;		On exit  : 0/0
  3136 ;;		Unchanged: 0/0
  3137 ;; Data sizes:     COMMON   BANK0   BANK1   BANK3   BANK2
  3138 ;;      Params:         0       4       0       0       0
  3139 ;;      Locals:         0       0       0       0       0
  3140 ;;      Temps:          0       4       0       0       0
  3141 ;;      Totals:         0       8       0       0       0
  3142 ;;Total ram usage:        8 bytes
  3143 ;; Hardware stack levels used:    1
  3144 ;; Hardware stack levels required when called:    2
  3145 ;; This function calls:
  3146 ;;		___lldiv
  3147 ;; This function is called by:
  3148 ;;		_main
  3149 ;; This function uses a non-reentrant model
  3150 ;;
  3151                           
  3152                           
  3153                           ;psect for function _i2cSetup
  3154  0A12                     _i2cSetup:
  3155  0A12                     l3288:	
  3156                           ;incstack = 0
  3157                           ; Regs used in _i2cSetup: [wreg+status,2+status,0+btemp+1+pclath+cstack]
  3158                           
  3159                           
  3160                           ;EEPROM_ext.c: 14:     SSPCON = 0b00101000;
  3161  0A12  3028               	movlw	40
  3162  0A13  1283               	bcf	3,5	;RP0=0, select bank0
  3163  0A14  1303               	bcf	3,6	;RP1=0, select bank0
  3164  0A15  0094               	movwf	20	;volatile
  3165  0A16                     l3290:
  3166                           
  3167                           ;EEPROM_ext.c: 15:     SSPCON2 = 0;
  3168  0A16  1683               	bsf	3,5	;RP0=1, select bank1
  3169  0A17  1303               	bcf	3,6	;RP1=0, select bank1
  3170  0A18  0191               	clrf	17	;volatile
  3171  0A19                     l3292:
  3172                           
  3173                           ;EEPROM_ext.c: 16:     SSPADD = (4000000 / (4 * baud)) - 1;
  3174  0A19  1283               	bcf	3,5	;RP0=0, select bank0
  3175  0A1A  1303               	bcf	3,6	;RP1=0, select bank0
  3176  0A1B  082D               	movf	i2cSetup@baud,w
  3177  0A1C  00B1               	movwf	??_i2cSetup
  3178  0A1D  082E               	movf	i2cSetup@baud+1,w
  3179  0A1E  00B2               	movwf	??_i2cSetup+1
  3180  0A1F  082F               	movf	i2cSetup@baud+2,w
  3181  0A20  00B3               	movwf	??_i2cSetup+2
  3182  0A21  0830               	movf	i2cSetup@baud+3,w
  3183  0A22  00B4               	movwf	??_i2cSetup+3
  3184  0A23  3002               	movlw	2
  3185  0A24                     u4465:
  3186  0A24  1003               	clrc
  3187  0A25  0DB1               	rlf	??_i2cSetup,f
  3188  0A26  0DB2               	rlf	??_i2cSetup+1,f
  3189  0A27  0DB3               	rlf	??_i2cSetup+2,f
  3190  0A28  0DB4               	rlf	??_i2cSetup+3,f
  3191  0A29                     u4460:
  3192  0A29  3EFF               	addlw	-1
  3193  0A2A  1D03               	skipz
  3194  0A2B  2A24               	goto	u4465
  3195  0A2C  0834               	movf	??_i2cSetup+3,w
  3196  0A2D  00A3               	movwf	___lldiv@divisor+3
  3197  0A2E  0833               	movf	??_i2cSetup+2,w
  3198  0A2F  00A2               	movwf	___lldiv@divisor+2
  3199  0A30  0832               	movf	??_i2cSetup+1,w
  3200  0A31  00A1               	movwf	___lldiv@divisor+1
  3201  0A32  0831               	movf	??_i2cSetup,w
  3202  0A33  00A0               	movwf	___lldiv@divisor
  3203  0A34  3000               	movlw	0
  3204  0A35  00A7               	movwf	___lldiv@dividend+3
  3205  0A36  303D               	movlw	61
  3206  0A37  00A6               	movwf	___lldiv@dividend+2
  3207  0A38  3009               	movlw	9
  3208  0A39  00A5               	movwf	___lldiv@dividend+1
  3209  0A3A  3000               	movlw	0
  3210  0A3B  00A4               	movwf	___lldiv@dividend
  3211  0A3C  120A  158A  23A6  120A  158A  	fcall	___lldiv
  3212  0A41  1283               	bcf	3,5	;RP0=0, select bank0
  3213  0A42  1303               	bcf	3,6	;RP1=0, select bank0
  3214  0A43  0820               	movf	?___lldiv,w
  3215  0A44  3EFF               	addlw	255
  3216  0A45  1683               	bsf	3,5	;RP0=1, select bank1
  3217  0A46  1303               	bcf	3,6	;RP1=0, select bank1
  3218  0A47  0093               	movwf	19	;volatile
  3219  0A48                     l3294:
  3220                           
  3221                           ;EEPROM_ext.c: 17:     SSPSTAT = 0;
  3222  0A48  0194               	clrf	20	;volatile
  3223  0A49                     l218:
  3224  0A49  0008               	return
  3225  0A4A                     __end_of_i2cSetup:
  3226                           
  3227                           	psect	text10
  3228  0BA6                     __ptext10:	
  3229 ;; *************** function ___lldiv *****************
  3230 ;; Defined at:
  3231 ;;		line 5 in file "C:\Program Files (x86)\Microchip\MPLABX\v2.20\pic\sources\c90\common\__lldiv.c"
  3232 ;; Parameters:    Size  Location     Type
  3233 ;;  divisor         4    0[BANK0 ] unsigned long 
  3234 ;;  dividend        4    4[BANK0 ] unsigned long 
  3235 ;; Auto vars:     Size  Location     Type
  3236 ;;  quotient        4    8[BANK0 ] unsigned long 
  3237 ;;  counter         1   12[BANK0 ] unsigned char 
  3238 ;; Return value:  Size  Location     Type
  3239 ;;                  4    0[BANK0 ] unsigned long 
  3240 ;; Registers used:
  3241 ;;		wreg, status,2, status,0, btemp+1
  3242 ;; Tracked objects:
  3243 ;;		On entry : 0/0
  3244 ;;		On exit  : 0/0
  3245 ;;		Unchanged: 0/0
  3246 ;; Data sizes:     COMMON   BANK0   BANK1   BANK3   BANK2
  3247 ;;      Params:         0       8       0       0       0
  3248 ;;      Locals:         0       5       0       0       0
  3249 ;;      Temps:          1       0       0       0       0
  3250 ;;      Totals:         1      13       0       0       0
  3251 ;;Total ram usage:       14 bytes
  3252 ;; Hardware stack levels used:    1
  3253 ;; Hardware stack levels required when called:    1
  3254 ;; This function calls:
  3255 ;;		Nothing
  3256 ;; This function is called by:
  3257 ;;		_i2cSetup
  3258 ;; This function uses a non-reentrant model
  3259 ;;
  3260                           
  3261                           
  3262                           ;psect for function ___lldiv
  3263  0BA6                     ___lldiv:
  3264  0BA6                     l3006:	
  3265                           ;incstack = 0
  3266                           ; Regs used in ___lldiv: [wreg+status,2+status,0+btemp+1]
  3267                           
  3268  0BA6  3000               	movlw	0
  3269  0BA7  1283               	bcf	3,5	;RP0=0, select bank0
  3270  0BA8  1303               	bcf	3,6	;RP1=0, select bank0
  3271  0BA9  00AB               	movwf	___lldiv@quotient+3
  3272  0BAA  3000               	movlw	0
  3273  0BAB  00AA               	movwf	___lldiv@quotient+2
  3274  0BAC  3000               	movlw	0
  3275  0BAD  00A9               	movwf	___lldiv@quotient+1
  3276  0BAE  3000               	movlw	0
  3277  0BAF  00A8               	movwf	___lldiv@quotient
  3278  0BB0  0823               	movf	___lldiv@divisor+3,w
  3279  0BB1  0422               	iorwf	___lldiv@divisor+2,w
  3280  0BB2  0421               	iorwf	___lldiv@divisor+1,w
  3281  0BB3  0420               	iorwf	___lldiv@divisor,w
  3282  0BB4  1903               	skipnz
  3283  0BB5  2BB7               	goto	u3711
  3284  0BB6  2BB8               	goto	u3710
  3285  0BB7                     u3711:
  3286  0BB7  2C05               	goto	l3028
  3287  0BB8                     u3710:
  3288  0BB8                     l3008:
  3289  0BB8  01AC               	clrf	___lldiv@counter
  3290  0BB9  0AAC               	incf	___lldiv@counter,f
  3291  0BBA  2BC8               	goto	l3014
  3292  0BBB                     l3010:
  3293  0BBB  3001               	movlw	1
  3294  0BBC  00F4               	movwf	??___lldiv
  3295  0BBD                     u3725:
  3296  0BBD  1003               	clrc
  3297  0BBE  0DA0               	rlf	___lldiv@divisor,f
  3298  0BBF  0DA1               	rlf	___lldiv@divisor+1,f
  3299  0BC0  0DA2               	rlf	___lldiv@divisor+2,f
  3300  0BC1  0DA3               	rlf	___lldiv@divisor+3,f
  3301  0BC2  0BF4               	decfsz	??___lldiv,f
  3302  0BC3  2BBD               	goto	u3725
  3303  0BC4                     l3012:
  3304  0BC4  3001               	movlw	1
  3305  0BC5  00FF               	movwf	btemp+1
  3306  0BC6  087F               	movf	btemp+1,w
  3307  0BC7  07AC               	addwf	___lldiv@counter,f
  3308  0BC8                     l3014:
  3309  0BC8  1FA3               	btfss	___lldiv@divisor+3,7
  3310  0BC9  2BCB               	goto	u3731
  3311  0BCA  2BCC               	goto	u3730
  3312  0BCB                     u3731:
  3313  0BCB  2BBB               	goto	l3010
  3314  0BCC                     u3730:
  3315  0BCC                     l3016:
  3316  0BCC  3001               	movlw	1
  3317  0BCD  00F4               	movwf	??___lldiv
  3318  0BCE                     u3745:
  3319  0BCE  1003               	clrc
  3320  0BCF  0DA8               	rlf	___lldiv@quotient,f
  3321  0BD0  0DA9               	rlf	___lldiv@quotient+1,f
  3322  0BD1  0DAA               	rlf	___lldiv@quotient+2,f
  3323  0BD2  0DAB               	rlf	___lldiv@quotient+3,f
  3324  0BD3  0BF4               	decfsz	??___lldiv,f
  3325  0BD4  2BCE               	goto	u3745
  3326  0BD5                     l3018:
  3327  0BD5  0823               	movf	___lldiv@divisor+3,w
  3328  0BD6  0227               	subwf	___lldiv@dividend+3,w
  3329  0BD7  1D03               	skipz
  3330  0BD8  2BE3               	goto	u3755
  3331  0BD9  0822               	movf	___lldiv@divisor+2,w
  3332  0BDA  0226               	subwf	___lldiv@dividend+2,w
  3333  0BDB  1D03               	skipz
  3334  0BDC  2BE3               	goto	u3755
  3335  0BDD  0821               	movf	___lldiv@divisor+1,w
  3336  0BDE  0225               	subwf	___lldiv@dividend+1,w
  3337  0BDF  1D03               	skipz
  3338  0BE0  2BE3               	goto	u3755
  3339  0BE1  0820               	movf	___lldiv@divisor,w
  3340  0BE2  0224               	subwf	___lldiv@dividend,w
  3341  0BE3                     u3755:
  3342  0BE3  1C03               	skipc
  3343  0BE4  2BE6               	goto	u3751
  3344  0BE5  2BE7               	goto	u3750
  3345  0BE6                     u3751:
  3346  0BE6  2BF6               	goto	l3024
  3347  0BE7                     u3750:
  3348  0BE7                     l3020:
  3349  0BE7  0820               	movf	___lldiv@divisor,w
  3350  0BE8  02A4               	subwf	___lldiv@dividend,f
  3351  0BE9  0821               	movf	___lldiv@divisor+1,w
  3352  0BEA  1C03               	skipc
  3353  0BEB  0F21               	incfsz	___lldiv@divisor+1,w
  3354  0BEC  02A5               	subwf	___lldiv@dividend+1,f
  3355  0BED  0822               	movf	___lldiv@divisor+2,w
  3356  0BEE  1C03               	skipc
  3357  0BEF  0F22               	incfsz	___lldiv@divisor+2,w
  3358  0BF0  02A6               	subwf	___lldiv@dividend+2,f
  3359  0BF1  0823               	movf	___lldiv@divisor+3,w
  3360  0BF2  1C03               	skipc
  3361  0BF3  0F23               	incfsz	___lldiv@divisor+3,w
  3362  0BF4  02A7               	subwf	___lldiv@dividend+3,f
  3363  0BF5                     l3022:
  3364  0BF5  1428               	bsf	___lldiv@quotient,0
  3365  0BF6                     l3024:
  3366  0BF6  3001               	movlw	1
  3367  0BF7                     u3765:
  3368  0BF7  1003               	clrc
  3369  0BF8  0CA3               	rrf	___lldiv@divisor+3,f
  3370  0BF9  0CA2               	rrf	___lldiv@divisor+2,f
  3371  0BFA  0CA1               	rrf	___lldiv@divisor+1,f
  3372  0BFB  0CA0               	rrf	___lldiv@divisor,f
  3373  0BFC  3EFF               	addlw	-1
  3374  0BFD  1D03               	skipz
  3375  0BFE  2BF7               	goto	u3765
  3376  0BFF                     l3026:
  3377  0BFF  3001               	movlw	1
  3378  0C00  02AC               	subwf	___lldiv@counter,f
  3379  0C01  1D03               	btfss	3,2
  3380  0C02  2C04               	goto	u3771
  3381  0C03  2C05               	goto	u3770
  3382  0C04                     u3771:
  3383  0C04  2BCC               	goto	l3016
  3384  0C05                     u3770:
  3385  0C05                     l3028:
  3386  0C05  082B               	movf	___lldiv@quotient+3,w
  3387  0C06  00A3               	movwf	?___lldiv+3
  3388  0C07  082A               	movf	___lldiv@quotient+2,w
  3389  0C08  00A2               	movwf	?___lldiv+2
  3390  0C09  0829               	movf	___lldiv@quotient+1,w
  3391  0C0A  00A1               	movwf	?___lldiv+1
  3392  0C0B  0828               	movf	___lldiv@quotient,w
  3393  0C0C  00A0               	movwf	?___lldiv
  3394  0C0D                     l436:
  3395  0C0D  0008               	return
  3396  0C0E                     __end_of___lldiv:
  3397                           
  3398                           	psect	text11
  3399  0979                     __ptext11:	
  3400 ;; *************** function _buzzer *****************
  3401 ;; Defined at:
  3402 ;;		line 131 in file "main.c"
  3403 ;; Parameters:    Size  Location     Type
  3404 ;;		None
  3405 ;; Auto vars:     Size  Location     Type
  3406 ;;		None
  3407 ;; Return value:  Size  Location     Type
  3408 ;;                  1    wreg      void 
  3409 ;; Registers used:
  3410 ;;		wreg
  3411 ;; Tracked objects:
  3412 ;;		On entry : 0/0
  3413 ;;		On exit  : 0/0
  3414 ;;		Unchanged: 0/0
  3415 ;; Data sizes:     COMMON   BANK0   BANK1   BANK3   BANK2
  3416 ;;      Params:         0       0       0       0       0
  3417 ;;      Locals:         0       0       0       0       0
  3418 ;;      Temps:          0       3       0       0       0
  3419 ;;      Totals:         0       3       0       0       0
  3420 ;;Total ram usage:        3 bytes
  3421 ;; Hardware stack levels used:    1
  3422 ;; Hardware stack levels required when called:    1
  3423 ;; This function calls:
  3424 ;;		Nothing
  3425 ;; This function is called by:
  3426 ;;		_main
  3427 ;; This function uses a non-reentrant model
  3428 ;;
  3429                           
  3430                           
  3431                           ;psect for function _buzzer
  3432  0979                     _buzzer:
  3433  0979                     l3270:	
  3434                           ;incstack = 0
  3435                           ; Regs used in _buzzer: [wreg]
  3436                           
  3437                           
  3438                           ;main.c: 133:     PORTCbits.RC1 = 1;
  3439  0979  1283               	bcf	3,5	;RP0=0, select bank0
  3440  097A  1303               	bcf	3,6	;RP1=0, select bank0
  3441  097B  1487               	bsf	7,1	;volatile
  3442  097C                     l3272:
  3443                           
  3444                           ;main.c: 134:     _delay((unsigned long)((1000)*(4000000/4000.0)));
  3445  097C  3006               	movlw	6
  3446  097D  1283               	bcf	3,5	;RP0=0, select bank0
  3447  097E  1303               	bcf	3,6	;RP1=0, select bank0
  3448  097F  00A2               	movwf	??_buzzer+2
  3449  0980  3013               	movlw	19
  3450  0981  00A1               	movwf	??_buzzer+1
  3451  0982  30AD               	movlw	173
  3452  0983  00A0               	movwf	??_buzzer
  3453  0984                     u4737:
  3454  0984  0BA0               	decfsz	??_buzzer,f
  3455  0985  2984               	goto	u4737
  3456  0986  0BA1               	decfsz	??_buzzer+1,f
  3457  0987  2984               	goto	u4737
  3458  0988  0BA2               	decfsz	??_buzzer+2,f
  3459  0989  2984               	goto	u4737
  3460  098A                     l3274:
  3461                           
  3462                           ;main.c: 135:     PORTCbits.RC1 = 0;
  3463  098A  1283               	bcf	3,5	;RP0=0, select bank0
  3464  098B  1303               	bcf	3,6	;RP1=0, select bank0
  3465  098C  1087               	bcf	7,1	;volatile
  3466                           
  3467                           ;main.c: 136:     PORTC;
  3468  098D  0807               	movf	7,w	;volatile
  3469  098E                     l140:
  3470  098E  0008               	return
  3471  098F                     __end_of_buzzer:
  3472                           
  3473                           	psect	text12
  3474  0926                     __ptext12:	
  3475 ;; *************** function _adcSetup *****************
  3476 ;; Defined at:
  3477 ;;		line 66 in file "main.c"
  3478 ;; Parameters:    Size  Location     Type
  3479 ;;		None
  3480 ;; Auto vars:     Size  Location     Type
  3481 ;;		None
  3482 ;; Return value:  Size  Location     Type
  3483 ;;                  1    wreg      void 
  3484 ;; Registers used:
  3485 ;;		wreg
  3486 ;; Tracked objects:
  3487 ;;		On entry : 0/0
  3488 ;;		On exit  : 0/0
  3489 ;;		Unchanged: 0/0
  3490 ;; Data sizes:     COMMON   BANK0   BANK1   BANK3   BANK2
  3491 ;;      Params:         0       0       0       0       0
  3492 ;;      Locals:         0       0       0       0       0
  3493 ;;      Temps:          0       0       0       0       0
  3494 ;;      Totals:         0       0       0       0       0
  3495 ;;Total ram usage:        0 bytes
  3496 ;; Hardware stack levels used:    1
  3497 ;; Hardware stack levels required when called:    1
  3498 ;; This function calls:
  3499 ;;		Nothing
  3500 ;; This function is called by:
  3501 ;;		_main
  3502 ;; This function uses a non-reentrant model
  3503 ;;
  3504                           
  3505                           
  3506                           ;psect for function _adcSetup
  3507  0926                     _adcSetup:
  3508  0926                     l2496:	
  3509                           ;incstack = 0
  3510                           ; Regs used in _adcSetup: [wreg]
  3511                           
  3512                           
  3513                           ;main.c: 67:     ADCON0 = 0b11000001;
  3514  0926  30C1               	movlw	193
  3515  0927  1283               	bcf	3,5	;RP0=0, select bank0
  3516  0928  1303               	bcf	3,6	;RP1=0, select bank0
  3517  0929  009F               	movwf	31	;volatile
  3518                           
  3519                           ;main.c: 68:     ADCON1 = 0b11000000;
  3520  092A  30C0               	movlw	192
  3521  092B  1683               	bsf	3,5	;RP0=1, select bank1
  3522  092C  1303               	bcf	3,6	;RP1=0, select bank1
  3523  092D  009F               	movwf	31	;volatile
  3524  092E                     l116:
  3525  092E  0008               	return
  3526  092F                     __end_of_adcSetup:
  3527                           
  3528                           	psect	text13
  3529  093B                     __ptext13:	
  3530 ;; *************** function _PWMSetup *****************
  3531 ;; Defined at:
  3532 ;;		line 71 in file "main.c"
  3533 ;; Parameters:    Size  Location     Type
  3534 ;;		None
  3535 ;; Auto vars:     Size  Location     Type
  3536 ;;		None
  3537 ;; Return value:  Size  Location     Type
  3538 ;;                  1    wreg      void 
  3539 ;; Registers used:
  3540 ;;		wreg
  3541 ;; Tracked objects:
  3542 ;;		On entry : 0/0
  3543 ;;		On exit  : 0/0
  3544 ;;		Unchanged: 0/0
  3545 ;; Data sizes:     COMMON   BANK0   BANK1   BANK3   BANK2
  3546 ;;      Params:         0       0       0       0       0
  3547 ;;      Locals:         0       0       0       0       0
  3548 ;;      Temps:          0       0       0       0       0
  3549 ;;      Totals:         0       0       0       0       0
  3550 ;;Total ram usage:        0 bytes
  3551 ;; Hardware stack levels used:    1
  3552 ;; Hardware stack levels required when called:    1
  3553 ;; This function calls:
  3554 ;;		Nothing
  3555 ;; This function is called by:
  3556 ;;		_main
  3557 ;; This function uses a non-reentrant model
  3558 ;;
  3559                           
  3560                           
  3561                           ;psect for function _PWMSetup
  3562  093B                     _PWMSetup:
  3563  093B                     l2498:	
  3564                           ;incstack = 0
  3565                           ; Regs used in _PWMSetup: [wreg]
  3566                           
  3567                           
  3568                           ;main.c: 72:     PR2 = (4000000 / (5000 * 4 * 4)) - 1;
  3569  093B  3013               	movlw	19
  3570  093C  1683               	bsf	3,5	;RP0=1, select bank1
  3571  093D  1303               	bcf	3,6	;RP1=0, select bank1
  3572  093E  0092               	movwf	18	;volatile
  3573  093F                     l2500:
  3574                           
  3575                           ;main.c: 73:     T2CONbits.T2CKPS1 = 0;
  3576  093F  1283               	bcf	3,5	;RP0=0, select bank0
  3577  0940  1303               	bcf	3,6	;RP1=0, select bank0
  3578  0941  1092               	bcf	18,1	;volatile
  3579  0942                     l2502:
  3580                           
  3581                           ;main.c: 74:     T2CONbits.T2CKPS0 = 1;
  3582  0942  1412               	bsf	18,0	;volatile
  3583  0943                     l2504:
  3584                           
  3585                           ;main.c: 75:     T2CONbits.TMR2ON = 1;
  3586  0943  1512               	bsf	18,2	;volatile
  3587  0944                     l2506:
  3588                           
  3589                           ;main.c: 76:     CCP1CONbits.CCP1M3 = 1;
  3590  0944  1597               	bsf	23,3	;volatile
  3591  0945                     l2508:
  3592                           
  3593                           ;main.c: 77:     CCP1CONbits.CCP1M2 = 1;
  3594  0945  1517               	bsf	23,2	;volatile
  3595  0946                     l119:
  3596  0946  0008               	return
  3597  0947                     __end_of_PWMSetup:
  3598                           
  3599                           	psect	text14
  3600  0CEC                     __ptext14:	
  3601 ;; *************** function _PWMDuty *****************
  3602 ;; Defined at:
  3603 ;;		line 81 in file "main.c"
  3604 ;; Parameters:    Size  Location     Type
  3605 ;;  duty            2   76[BANK0 ] unsigned int 
  3606 ;; Auto vars:     Size  Location     Type
  3607 ;;		None
  3608 ;; Return value:  Size  Location     Type
  3609 ;;                  1    wreg      void 
  3610 ;; Registers used:
  3611 ;;		wreg, status,2, status,0, btemp+1, pclath, cstack
  3612 ;; Tracked objects:
  3613 ;;		On entry : 0/0
  3614 ;;		On exit  : 0/0
  3615 ;;		Unchanged: 0/0
  3616 ;; Data sizes:     COMMON   BANK0   BANK1   BANK3   BANK2
  3617 ;;      Params:         0       2       0       0       0
  3618 ;;      Locals:         0       0       0       0       0
  3619 ;;      Temps:          0       2       0       0       0
  3620 ;;      Totals:         0       4       0       0       0
  3621 ;;Total ram usage:        4 bytes
  3622 ;; Hardware stack levels used:    1
  3623 ;; Hardware stack levels required when called:    3
  3624 ;; This function calls:
  3625 ;;		___fldiv
  3626 ;;		___flmul
  3627 ;;		___fltol
  3628 ;;		___xxtofl
  3629 ;; This function is called by:
  3630 ;;		_main
  3631 ;; This function uses a non-reentrant model
  3632 ;;
  3633                           
  3634                           
  3635                           ;psect for function _PWMDuty
  3636  0CEC                     _PWMDuty:
  3637  0CEC                     l3260:	
  3638                           ;incstack = 0
  3639                           ; Regs used in _PWMDuty: [wreg+status,2+status,0+btemp+1+pclath+cstack]
  3640                           
  3641                           
  3642                           ;main.c: 83:     if (duty < 1023) {
  3643  0CEC  3003               	movlw	3
  3644  0CED  1283               	bcf	3,5	;RP0=0, select bank0
  3645  0CEE  1303               	bcf	3,6	;RP1=0, select bank0
  3646  0CEF  026D               	subwf	PWMDuty@duty+1,w
  3647  0CF0  30FF               	movlw	255
  3648  0CF1  1903               	skipnz
  3649  0CF2  026C               	subwf	PWMDuty@duty,w
  3650  0CF3  1803               	skipnc
  3651  0CF4  2CF6               	goto	u4391
  3652  0CF5  2CF7               	goto	u4390
  3653  0CF6                     u4391:
  3654  0CF6  2D66               	goto	l123
  3655  0CF7                     u4390:
  3656  0CF7                     l3262:
  3657                           
  3658                           ;main.c: 84:         duty = ((float) duty / 1023)*(4000000 / (5000 * 4));
  3659  0CF7  086C               	movf	PWMDuty@duty,w
  3660  0CF8  00A0               	movwf	___xxtofl@val
  3661  0CF9  086D               	movf	PWMDuty@duty+1,w
  3662  0CFA  00A1               	movwf	___xxtofl@val+1
  3663  0CFB  01A2               	clrf	___xxtofl@val+2
  3664  0CFC  01A3               	clrf	___xxtofl@val+3
  3665  0CFD  3000               	movlw	0
  3666  0CFE  120A  158A  2567  120A  158A  	fcall	___xxtofl
  3667  0D03  1283               	bcf	3,5	;RP0=0, select bank0
  3668  0D04  1303               	bcf	3,6	;RP1=0, select bank0
  3669  0D05  0823               	movf	?___xxtofl+3,w
  3670  0D06  00B5               	movwf	___fldiv@b+3
  3671  0D07  0822               	movf	?___xxtofl+2,w
  3672  0D08  00B4               	movwf	___fldiv@b+2
  3673  0D09  0821               	movf	?___xxtofl+1,w
  3674  0D0A  00B3               	movwf	___fldiv@b+1
  3675  0D0B  0820               	movf	?___xxtofl,w
  3676  0D0C  00B2               	movwf	___fldiv@b
  3677  0D0D  3044               	movlw	68
  3678  0D0E  00B1               	movwf	___fldiv@a+3
  3679  0D0F  307F               	movlw	127
  3680  0D10  00B0               	movwf	___fldiv@a+2
  3681  0D11  30C0               	movlw	192
  3682  0D12  00AF               	movwf	___fldiv@a+1
  3683  0D13  3000               	movlw	0
  3684  0D14  00AE               	movwf	___fldiv@a
  3685  0D15  120A  158A  2623  120A  158A  	fcall	___fldiv
  3686  0D1A  1283               	bcf	3,5	;RP0=0, select bank0
  3687  0D1B  1303               	bcf	3,6	;RP1=0, select bank0
  3688  0D1C  0831               	movf	?___fldiv+3,w
  3689  0D1D  00CF               	movwf	___flmul@a+3
  3690  0D1E  0830               	movf	?___fldiv+2,w
  3691  0D1F  00CE               	movwf	___flmul@a+2
  3692  0D20  082F               	movf	?___fldiv+1,w
  3693  0D21  00CD               	movwf	___flmul@a+1
  3694  0D22  082E               	movf	?___fldiv,w
  3695  0D23  00CC               	movwf	___flmul@a
  3696  0D24  3043               	movlw	67
  3697  0D25  00CB               	movwf	___flmul@b+3
  3698  0D26  3048               	movlw	72
  3699  0D27  00CA               	movwf	___flmul@b+2
  3700  0D28  3000               	movlw	0
  3701  0D29  00C9               	movwf	___flmul@b+1
  3702  0D2A  3000               	movlw	0
  3703  0D2B  00C8               	movwf	___flmul@b
  3704  0D2C  120A  118A  2051  120A  158A  	fcall	___flmul
  3705  0D31  1283               	bcf	3,5	;RP0=0, select bank0
  3706  0D32  1303               	bcf	3,6	;RP1=0, select bank0
  3707  0D33  084B               	movf	?___flmul+3,w
  3708  0D34  00E5               	movwf	___fltol@f1+3
  3709  0D35  084A               	movf	?___flmul+2,w
  3710  0D36  00E4               	movwf	___fltol@f1+2
  3711  0D37  0849               	movf	?___flmul+1,w
  3712  0D38  00E3               	movwf	___fltol@f1+1
  3713  0D39  0848               	movf	?___flmul,w
  3714  0D3A  00E2               	movwf	___fltol@f1
  3715  0D3B  120A  118A  2779  120A  158A  	fcall	___fltol
  3716  0D40  1283               	bcf	3,5	;RP0=0, select bank0
  3717  0D41  1303               	bcf	3,6	;RP1=0, select bank0
  3718  0D42  0863               	movf	?___fltol+1,w
  3719  0D43  00ED               	movwf	PWMDuty@duty+1
  3720  0D44  0862               	movf	?___fltol,w
  3721  0D45  00EC               	movwf	PWMDuty@duty
  3722  0D46                     l3264:
  3723                           
  3724                           ;main.c: 85:         CCP1X = duty;
  3725  0D46  186C               	btfsc	PWMDuty@duty,0
  3726  0D47  2D49               	goto	u4401
  3727  0D48  2D4D               	goto	u4400
  3728  0D49                     u4401:
  3729  0D49  1283               	bcf	3,5	;RP0=0, select bank0
  3730  0D4A  1303               	bcf	3,6	;RP1=0, select bank0
  3731  0D4B  1697               	bsf	23,5	;volatile
  3732  0D4C  2D50               	goto	u4414
  3733  0D4D                     u4400:
  3734  0D4D  1283               	bcf	3,5	;RP0=0, select bank0
  3735  0D4E  1303               	bcf	3,6	;RP1=0, select bank0
  3736  0D4F  1297               	bcf	23,5	;volatile
  3737  0D50                     u4414:
  3738  0D50                     l3266:
  3739                           
  3740                           ;main.c: 86:         CCP1Y = duty;
  3741  0D50  186C               	btfsc	PWMDuty@duty,0
  3742  0D51  2D53               	goto	u4421
  3743  0D52  2D57               	goto	u4420
  3744  0D53                     u4421:
  3745  0D53  1283               	bcf	3,5	;RP0=0, select bank0
  3746  0D54  1303               	bcf	3,6	;RP1=0, select bank0
  3747  0D55  1617               	bsf	23,4	;volatile
  3748  0D56  2D5A               	goto	u4434
  3749  0D57                     u4420:
  3750  0D57  1283               	bcf	3,5	;RP0=0, select bank0
  3751  0D58  1303               	bcf	3,6	;RP1=0, select bank0
  3752  0D59  1217               	bcf	23,4	;volatile
  3753  0D5A                     u4434:
  3754  0D5A                     l3268:
  3755                           
  3756                           ;main.c: 87:         CCPR1L = duty >> 2;
  3757  0D5A  086D               	movf	PWMDuty@duty+1,w
  3758  0D5B  00EF               	movwf	??_PWMDuty+1
  3759  0D5C  086C               	movf	PWMDuty@duty,w
  3760  0D5D  00EE               	movwf	??_PWMDuty
  3761  0D5E  1003               	clrc
  3762  0D5F  0CEF               	rrf	??_PWMDuty+1,f
  3763  0D60  0CEE               	rrf	??_PWMDuty,f
  3764  0D61  1003               	clrc
  3765  0D62  0CEF               	rrf	??_PWMDuty+1,f
  3766  0D63  0CEE               	rrf	??_PWMDuty,f
  3767  0D64  086E               	movf	??_PWMDuty,w
  3768  0D65  0095               	movwf	21	;volatile
  3769  0D66                     l123:
  3770  0D66  0008               	return
  3771  0D67                     __end_of_PWMDuty:
  3772                           
  3773                           	psect	text15
  3774  0D67                     __ptext15:	
  3775 ;; *************** function ___xxtofl *****************
  3776 ;; Defined at:
  3777 ;;		line 10 in file "C:\Program Files (x86)\Microchip\MPLABX\v2.20\pic\sources\c90\common\xxtofl.c"
  3778 ;; Parameters:    Size  Location     Type
  3779 ;;  sign            1    wreg     unsigned char 
  3780 ;;  val             4    0[BANK0 ] long 
  3781 ;; Auto vars:     Size  Location     Type
  3782 ;;  sign            1    8[BANK0 ] unsigned char 
  3783 ;;  arg             4   10[BANK0 ] unsigned long 
  3784 ;;  exp             1    9[BANK0 ] unsigned char 
  3785 ;; Return value:  Size  Location     Type
  3786 ;;                  4    0[BANK0 ] unsigned char 
  3787 ;; Registers used:
  3788 ;;		wreg, status,2, status,0, btemp+1
  3789 ;; Tracked objects:
  3790 ;;		On entry : 0/0
  3791 ;;		On exit  : 0/0
  3792 ;;		Unchanged: 0/0
  3793 ;; Data sizes:     COMMON   BANK0   BANK1   BANK3   BANK2
  3794 ;;      Params:         0       4       0       0       0
  3795 ;;      Locals:         0       6       0       0       0
  3796 ;;      Temps:          0       4       0       0       0
  3797 ;;      Totals:         0      14       0       0       0
  3798 ;;Total ram usage:       14 bytes
  3799 ;; Hardware stack levels used:    1
  3800 ;; Hardware stack levels required when called:    1
  3801 ;; This function calls:
  3802 ;;		Nothing
  3803 ;; This function is called by:
  3804 ;;		_PWMDuty
  3805 ;; This function uses a non-reentrant model
  3806 ;;
  3807                           
  3808                           
  3809                           ;psect for function ___xxtofl
  3810  0D67                     ___xxtofl:
  3811                           
  3812                           ;incstack = 0
  3813                           ; Regs used in ___xxtofl: [wreg+status,2+status,0+btemp+1]
  3814                           ;___xxtofl@sign stored from wreg
  3815  0D67  1283               	bcf	3,5	;RP0=0, select bank0
  3816  0D68  1303               	bcf	3,6	;RP1=0, select bank0
  3817  0D69  00A8               	movwf	___xxtofl@sign
  3818  0D6A                     l3212:
  3819  0D6A  0828               	movf	___xxtofl@sign,w
  3820  0D6B  1903               	btfsc	3,2
  3821  0D6C  2D6E               	goto	u4251
  3822  0D6D  2D6F               	goto	u4250
  3823  0D6E                     u4251:
  3824  0D6E  2D83               	goto	l3218
  3825  0D6F                     u4250:
  3826  0D6F                     l3214:
  3827  0D6F  1FA3               	btfss	___xxtofl@val+3,7
  3828  0D70  2D72               	goto	u4261
  3829  0D71  2D73               	goto	u4260
  3830  0D72                     u4261:
  3831  0D72  2D83               	goto	l3218
  3832  0D73                     u4260:
  3833  0D73                     l3216:
  3834  0D73  0920               	comf	___xxtofl@val,w
  3835  0D74  00AA               	movwf	___xxtofl@arg
  3836  0D75  0921               	comf	___xxtofl@val+1,w
  3837  0D76  00AB               	movwf	___xxtofl@arg+1
  3838  0D77  0922               	comf	___xxtofl@val+2,w
  3839  0D78  00AC               	movwf	___xxtofl@arg+2
  3840  0D79  0923               	comf	___xxtofl@val+3,w
  3841  0D7A  00AD               	movwf	___xxtofl@arg+3
  3842  0D7B  0AAA               	incf	___xxtofl@arg,f
  3843  0D7C  1903               	skipnz
  3844  0D7D  0AAB               	incf	___xxtofl@arg+1,f
  3845  0D7E  1903               	skipnz
  3846  0D7F  0AAC               	incf	___xxtofl@arg+2,f
  3847  0D80  1903               	skipnz
  3848  0D81  0AAD               	incf	___xxtofl@arg+3,f
  3849  0D82  2D8B               	goto	l833
  3850  0D83                     l3218:
  3851  0D83  0823               	movf	___xxtofl@val+3,w
  3852  0D84  00AD               	movwf	___xxtofl@arg+3
  3853  0D85  0822               	movf	___xxtofl@val+2,w
  3854  0D86  00AC               	movwf	___xxtofl@arg+2
  3855  0D87  0821               	movf	___xxtofl@val+1,w
  3856  0D88  00AB               	movwf	___xxtofl@arg+1
  3857  0D89  0820               	movf	___xxtofl@val,w
  3858  0D8A  00AA               	movwf	___xxtofl@arg
  3859  0D8B                     l833:
  3860  0D8B  0823               	movf	___xxtofl@val+3,w
  3861  0D8C  0422               	iorwf	___xxtofl@val+2,w
  3862  0D8D  0421               	iorwf	___xxtofl@val+1,w
  3863  0D8E  0420               	iorwf	___xxtofl@val,w
  3864  0D8F  1D03               	skipz
  3865  0D90  2D92               	goto	u4271
  3866  0D91  2D93               	goto	u4270
  3867  0D92                     u4271:
  3868  0D92  2D9C               	goto	l3224
  3869  0D93                     u4270:
  3870  0D93                     l3220:
  3871  0D93  3000               	movlw	0
  3872  0D94  00A3               	movwf	?___xxtofl+3
  3873  0D95  3000               	movlw	0
  3874  0D96  00A2               	movwf	?___xxtofl+2
  3875  0D97  3000               	movlw	0
  3876  0D98  00A1               	movwf	?___xxtofl+1
  3877  0D99  3000               	movlw	0
  3878  0D9A  00A0               	movwf	?___xxtofl
  3879  0D9B  2E22               	goto	l835
  3880  0D9C                     l3224:
  3881  0D9C  3096               	movlw	150
  3882  0D9D  00FF               	movwf	btemp+1
  3883  0D9E  087F               	movf	btemp+1,w
  3884  0D9F  00A9               	movwf	___xxtofl@exp
  3885  0DA0  2DAE               	goto	l3230
  3886  0DA1                     l3226:
  3887  0DA1  3001               	movlw	1
  3888  0DA2  00FF               	movwf	btemp+1
  3889  0DA3  087F               	movf	btemp+1,w
  3890  0DA4  07A9               	addwf	___xxtofl@exp,f
  3891  0DA5                     l3228:
  3892  0DA5  3001               	movlw	1
  3893  0DA6                     u4285:
  3894  0DA6  1003               	clrc
  3895  0DA7  0CAD               	rrf	___xxtofl@arg+3,f
  3896  0DA8  0CAC               	rrf	___xxtofl@arg+2,f
  3897  0DA9  0CAB               	rrf	___xxtofl@arg+1,f
  3898  0DAA  0CAA               	rrf	___xxtofl@arg,f
  3899  0DAB  3EFF               	addlw	-1
  3900  0DAC  1D03               	skipz
  3901  0DAD  2DA6               	goto	u4285
  3902  0DAE                     l3230:
  3903  0DAE  30FE               	movlw	254
  3904  0DAF  052D               	andwf	___xxtofl@arg+3,w
  3905  0DB0  1D03               	btfss	3,2
  3906  0DB1  2DB3               	goto	u4291
  3907  0DB2  2DB4               	goto	u4290
  3908  0DB3                     u4291:
  3909  0DB3  2DA1               	goto	l3226
  3910  0DB4                     u4290:
  3911  0DB4  2DD0               	goto	l3238
  3912  0DB5                     l3232:
  3913  0DB5  3001               	movlw	1
  3914  0DB6  00FF               	movwf	btemp+1
  3915  0DB7  087F               	movf	btemp+1,w
  3916  0DB8  07A9               	addwf	___xxtofl@exp,f
  3917  0DB9                     l3234:
  3918  0DB9  3001               	movlw	1
  3919  0DBA  07AA               	addwf	___xxtofl@arg,f
  3920  0DBB  3000               	movlw	0
  3921  0DBC  1803               	skipnc
  3922  0DBD  3001               	movlw	1
  3923  0DBE  07AB               	addwf	___xxtofl@arg+1,f
  3924  0DBF  3000               	movlw	0
  3925  0DC0  1803               	skipnc
  3926  0DC1  3001               	movlw	1
  3927  0DC2  07AC               	addwf	___xxtofl@arg+2,f
  3928  0DC3  3000               	movlw	0
  3929  0DC4  1803               	skipnc
  3930  0DC5  3001               	movlw	1
  3931  0DC6  07AD               	addwf	___xxtofl@arg+3,f
  3932  0DC7                     l3236:
  3933  0DC7  3001               	movlw	1
  3934  0DC8                     u4305:
  3935  0DC8  1003               	clrc
  3936  0DC9  0CAD               	rrf	___xxtofl@arg+3,f
  3937  0DCA  0CAC               	rrf	___xxtofl@arg+2,f
  3938  0DCB  0CAB               	rrf	___xxtofl@arg+1,f
  3939  0DCC  0CAA               	rrf	___xxtofl@arg,f
  3940  0DCD  3EFF               	addlw	-1
  3941  0DCE  1D03               	skipz
  3942  0DCF  2DC8               	goto	u4305
  3943  0DD0                     l3238:
  3944  0DD0  30FF               	movlw	255
  3945  0DD1  052D               	andwf	___xxtofl@arg+3,w
  3946  0DD2  1D03               	btfss	3,2
  3947  0DD3  2DD5               	goto	u4311
  3948  0DD4  2DD6               	goto	u4310
  3949  0DD5                     u4311:
  3950  0DD5  2DB5               	goto	l3232
  3951  0DD6                     u4310:
  3952  0DD6  2DE2               	goto	l3242
  3953  0DD7                     l3240:
  3954  0DD7  3001               	movlw	1
  3955  0DD8  02A9               	subwf	___xxtofl@exp,f
  3956  0DD9  3001               	movlw	1
  3957  0DDA  00A4               	movwf	??___xxtofl
  3958  0DDB                     u4325:
  3959  0DDB  1003               	clrc
  3960  0DDC  0DAA               	rlf	___xxtofl@arg,f
  3961  0DDD  0DAB               	rlf	___xxtofl@arg+1,f
  3962  0DDE  0DAC               	rlf	___xxtofl@arg+2,f
  3963  0DDF  0DAD               	rlf	___xxtofl@arg+3,f
  3964  0DE0  0BA4               	decfsz	??___xxtofl,f
  3965  0DE1  2DDB               	goto	u4325
  3966  0DE2                     l3242:
  3967  0DE2  1BAC               	btfsc	___xxtofl@arg+2,7
  3968  0DE3  2DE5               	goto	u4331
  3969  0DE4  2DE6               	goto	u4330
  3970  0DE5                     u4331:
  3971  0DE5  2DEC               	goto	l846
  3972  0DE6                     u4330:
  3973  0DE6                     l3244:
  3974  0DE6  3002               	movlw	2
  3975  0DE7  0229               	subwf	___xxtofl@exp,w
  3976  0DE8  1803               	skipnc
  3977  0DE9  2DEB               	goto	u4341
  3978  0DEA  2DEC               	goto	u4340
  3979  0DEB                     u4341:
  3980  0DEB  2DD7               	goto	l3240
  3981  0DEC                     u4340:
  3982  0DEC                     l846:
  3983  0DEC  1829               	btfsc	___xxtofl@exp,0
  3984  0DED  2DEF               	goto	u4351
  3985  0DEE  2DF0               	goto	u4350
  3986  0DEF                     u4351:
  3987  0DEF  2DF8               	goto	l847
  3988  0DF0                     u4350:
  3989  0DF0                     l3246:
  3990  0DF0  30FF               	movlw	255
  3991  0DF1  05AA               	andwf	___xxtofl@arg,f
  3992  0DF2  30FF               	movlw	255
  3993  0DF3  05AB               	andwf	___xxtofl@arg+1,f
  3994  0DF4  307F               	movlw	127
  3995  0DF5  05AC               	andwf	___xxtofl@arg+2,f
  3996  0DF6  30FF               	movlw	255
  3997  0DF7  05AD               	andwf	___xxtofl@arg+3,f
  3998  0DF8                     l847:
  3999  0DF8  1003               	clrc
  4000  0DF9  0CA9               	rrf	___xxtofl@exp,f
  4001  0DFA                     l3248:
  4002  0DFA  0829               	movf	___xxtofl@exp,w
  4003  0DFB  00A4               	movwf	??___xxtofl
  4004  0DFC  01A5               	clrf	??___xxtofl+1
  4005  0DFD  01A6               	clrf	??___xxtofl+2
  4006  0DFE  01A7               	clrf	??___xxtofl+3
  4007  0DFF  3018               	movlw	24
  4008  0E00                     u4365:
  4009  0E00  1003               	clrc
  4010  0E01  0DA4               	rlf	??___xxtofl,f
  4011  0E02  0DA5               	rlf	??___xxtofl+1,f
  4012  0E03  0DA6               	rlf	??___xxtofl+2,f
  4013  0E04  0DA7               	rlf	??___xxtofl+3,f
  4014  0E05                     u4360:
  4015  0E05  3EFF               	addlw	-1
  4016  0E06  1D03               	skipz
  4017  0E07  2E00               	goto	u4365
  4018  0E08  0824               	movf	??___xxtofl,w
  4019  0E09  04AA               	iorwf	___xxtofl@arg,f
  4020  0E0A  0825               	movf	??___xxtofl+1,w
  4021  0E0B  04AB               	iorwf	___xxtofl@arg+1,f
  4022  0E0C  0826               	movf	??___xxtofl+2,w
  4023  0E0D  04AC               	iorwf	___xxtofl@arg+2,f
  4024  0E0E  0827               	movf	??___xxtofl+3,w
  4025  0E0F  04AD               	iorwf	___xxtofl@arg+3,f
  4026  0E10                     l3250:
  4027  0E10  0828               	movf	___xxtofl@sign,w
  4028  0E11  1903               	btfsc	3,2
  4029  0E12  2E14               	goto	u4371
  4030  0E13  2E15               	goto	u4370
  4031  0E14                     u4371:
  4032  0E14  2E1A               	goto	l3256
  4033  0E15                     u4370:
  4034  0E15                     l3252:
  4035  0E15  1FA3               	btfss	___xxtofl@val+3,7
  4036  0E16  2E18               	goto	u4381
  4037  0E17  2E19               	goto	u4380
  4038  0E18                     u4381:
  4039  0E18  2E1A               	goto	l3256
  4040  0E19                     u4380:
  4041  0E19                     l3254:
  4042  0E19  17AD               	bsf	___xxtofl@arg+3,7
  4043  0E1A                     l3256:
  4044  0E1A  082D               	movf	___xxtofl@arg+3,w
  4045  0E1B  00A3               	movwf	?___xxtofl+3
  4046  0E1C  082C               	movf	___xxtofl@arg+2,w
  4047  0E1D  00A2               	movwf	?___xxtofl+2
  4048  0E1E  082B               	movf	___xxtofl@arg+1,w
  4049  0E1F  00A1               	movwf	?___xxtofl+1
  4050  0E20  082A               	movf	___xxtofl@arg,w
  4051  0E21  00A0               	movwf	?___xxtofl
  4052  0E22                     l835:
  4053  0E22  0008               	return
  4054  0E23                     __end_of___xxtofl:
  4055                           
  4056                           	psect	text16
  4057  0779                     __ptext16:	
  4058 ;; *************** function ___fltol *****************
  4059 ;; Defined at:
  4060 ;;		line 43 in file "C:\Program Files (x86)\Microchip\MPLABX\v2.20\pic\sources\c90\common\fltol.c"
  4061 ;; Parameters:    Size  Location     Type
  4062 ;;  f1              4   66[BANK0 ] unsigned char 
  4063 ;; Auto vars:     Size  Location     Type
  4064 ;;  exp1            1   75[BANK0 ] unsigned char 
  4065 ;;  sign1           1   74[BANK0 ] unsigned char 
  4066 ;; Return value:  Size  Location     Type
  4067 ;;                  4   66[BANK0 ] long 
  4068 ;; Registers used:
  4069 ;;		wreg, status,2, status,0, btemp+1
  4070 ;; Tracked objects:
  4071 ;;		On entry : 0/0
  4072 ;;		On exit  : 0/0
  4073 ;;		Unchanged: 0/0
  4074 ;; Data sizes:     COMMON   BANK0   BANK1   BANK3   BANK2
  4075 ;;      Params:         0       4       0       0       0
  4076 ;;      Locals:         0       2       0       0       0
  4077 ;;      Temps:          0       4       0       0       0
  4078 ;;      Totals:         0      10       0       0       0
  4079 ;;Total ram usage:       10 bytes
  4080 ;; Hardware stack levels used:    1
  4081 ;; Hardware stack levels required when called:    1
  4082 ;; This function calls:
  4083 ;;		Nothing
  4084 ;; This function is called by:
  4085 ;;		_PWMDuty
  4086 ;; This function uses a non-reentrant model
  4087 ;;
  4088                           
  4089                           
  4090                           ;psect for function ___fltol
  4091  0779                     ___fltol:
  4092  0779                     l3032:	
  4093                           ;incstack = 0
  4094                           ; Regs used in ___fltol: [wreg+status,2+status,0+btemp+1]
  4095                           
  4096  0779  1003               	clrc
  4097  077A  1283               	bcf	3,5	;RP0=0, select bank0
  4098  077B  1303               	bcf	3,6	;RP1=0, select bank0
  4099  077C  0D64               	rlf	___fltol@f1+2,w
  4100  077D  0D65               	rlf	___fltol@f1+3,w
  4101  077E  00FF               	movwf	btemp+1
  4102  077F  087F               	movf	btemp+1,w
  4103  0780  00EB               	movwf	___fltol@exp1
  4104  0781  086B               	movf	___fltol@exp1,w
  4105  0782  1D03               	btfss	3,2
  4106  0783  2F85               	goto	u3781
  4107  0784  2F86               	goto	u3780
  4108  0785                     u3781:
  4109  0785  2F8F               	goto	l3038
  4110  0786                     u3780:
  4111  0786                     l3034:
  4112  0786  3000               	movlw	0
  4113  0787  00E5               	movwf	?___fltol+3
  4114  0788  3000               	movlw	0
  4115  0789  00E4               	movwf	?___fltol+2
  4116  078A  3000               	movlw	0
  4117  078B  00E3               	movwf	?___fltol+1
  4118  078C  3000               	movlw	0
  4119  078D  00E2               	movwf	?___fltol
  4120  078E  2FF4               	goto	l586
  4121  078F                     l3038:
  4122  078F  0862               	movf	___fltol@f1,w
  4123  0790  00E6               	movwf	??___fltol
  4124  0791  0863               	movf	___fltol@f1+1,w
  4125  0792  00E7               	movwf	??___fltol+1
  4126  0793  0864               	movf	___fltol@f1+2,w
  4127  0794  00E8               	movwf	??___fltol+2
  4128  0795  0865               	movf	___fltol@f1+3,w
  4129  0796  00E9               	movwf	??___fltol+3
  4130  0797  301F               	movlw	31
  4131  0798                     u3795:
  4132  0798  1003               	clrc
  4133  0799  0CE9               	rrf	??___fltol+3,f
  4134  079A  0CE8               	rrf	??___fltol+2,f
  4135  079B  0CE7               	rrf	??___fltol+1,f
  4136  079C  0CE6               	rrf	??___fltol,f
  4137  079D                     u3790:
  4138  079D  3EFF               	addlw	-1
  4139  079E  1D03               	skipz
  4140  079F  2F98               	goto	u3795
  4141  07A0  0866               	movf	??___fltol,w
  4142  07A1  00FF               	movwf	btemp+1
  4143  07A2  087F               	movf	btemp+1,w
  4144  07A3  00EA               	movwf	___fltol@sign1
  4145  07A4                     l3040:
  4146  07A4  17E4               	bsf	___fltol@f1+2,7
  4147  07A5                     l3042:
  4148  07A5  30FF               	movlw	255
  4149  07A6  05E2               	andwf	___fltol@f1,f
  4150  07A7  30FF               	movlw	255
  4151  07A8  05E3               	andwf	___fltol@f1+1,f
  4152  07A9  30FF               	movlw	255
  4153  07AA  05E4               	andwf	___fltol@f1+2,f
  4154  07AB  3000               	movlw	0
  4155  07AC  05E5               	andwf	___fltol@f1+3,f
  4156  07AD                     l3044:
  4157  07AD  3096               	movlw	150
  4158  07AE  02EB               	subwf	___fltol@exp1,f
  4159  07AF                     l3046:
  4160  07AF  1FEB               	btfss	___fltol@exp1,7
  4161  07B0  2FB2               	goto	u3801
  4162  07B1  2FB3               	goto	u3800
  4163  07B2                     u3801:
  4164  07B2  2FCD               	goto	l3058
  4165  07B3                     u3800:
  4166  07B3                     l3048:
  4167  07B3  086B               	movf	___fltol@exp1,w
  4168  07B4  3A80               	xorlw	128
  4169  07B5  3E97               	addlw	151
  4170  07B6  1803               	skipnc
  4171  07B7  2FB9               	goto	u3811
  4172  07B8  2FBA               	goto	u3810
  4173  07B9                     u3811:
  4174  07B9  2FBB               	goto	l3054
  4175  07BA                     u3810:
  4176  07BA  2F86               	goto	l3034
  4177  07BB                     l3054:
  4178  07BB  3001               	movlw	1
  4179  07BC                     u3825:
  4180  07BC  1003               	clrc
  4181  07BD  0CE5               	rrf	___fltol@f1+3,f
  4182  07BE  0CE4               	rrf	___fltol@f1+2,f
  4183  07BF  0CE3               	rrf	___fltol@f1+1,f
  4184  07C0  0CE2               	rrf	___fltol@f1,f
  4185  07C1  3EFF               	addlw	-1
  4186  07C2  1D03               	skipz
  4187  07C3  2FBC               	goto	u3825
  4188  07C4                     l3056:
  4189  07C4  3001               	movlw	1
  4190  07C5  00FF               	movwf	btemp+1
  4191  07C6  087F               	movf	btemp+1,w
  4192  07C7  07EB               	addwf	___fltol@exp1,f
  4193  07C8  1D03               	btfss	3,2
  4194  07C9  2FCB               	goto	u3831
  4195  07CA  2FCC               	goto	u3830
  4196  07CB                     u3831:
  4197  07CB  2FBB               	goto	l3054
  4198  07CC                     u3830:
  4199  07CC  2FE4               	goto	l3066
  4200  07CD                     l3058:
  4201  07CD  3020               	movlw	32
  4202  07CE  026B               	subwf	___fltol@exp1,w
  4203  07CF  1C03               	skipc
  4204  07D0  2FD2               	goto	u3841
  4205  07D1  2FD3               	goto	u3840
  4206  07D2                     u3841:
  4207  07D2  2FDF               	goto	l593
  4208  07D3                     u3840:
  4209  07D3  2F86               	goto	l3034
  4210  07D4                     l3064:
  4211  07D4  3001               	movlw	1
  4212  07D5  00E6               	movwf	??___fltol
  4213  07D6                     u3855:
  4214  07D6  1003               	clrc
  4215  07D7  0DE2               	rlf	___fltol@f1,f
  4216  07D8  0DE3               	rlf	___fltol@f1+1,f
  4217  07D9  0DE4               	rlf	___fltol@f1+2,f
  4218  07DA  0DE5               	rlf	___fltol@f1+3,f
  4219  07DB  0BE6               	decfsz	??___fltol,f
  4220  07DC  2FD6               	goto	u3855
  4221  07DD  3001               	movlw	1
  4222  07DE  02EB               	subwf	___fltol@exp1,f
  4223  07DF                     l593:
  4224  07DF  086B               	movf	___fltol@exp1,w
  4225  07E0  1D03               	btfss	3,2
  4226  07E1  2FE3               	goto	u3861
  4227  07E2  2FE4               	goto	u3860
  4228  07E3                     u3861:
  4229  07E3  2FD4               	goto	l3064
  4230  07E4                     u3860:
  4231  07E4                     l3066:
  4232  07E4  086A               	movf	___fltol@sign1,w
  4233  07E5  1903               	btfsc	3,2
  4234  07E6  2FE8               	goto	u3871
  4235  07E7  2FE9               	goto	u3870
  4236  07E8                     u3871:
  4237  07E8  2FF4               	goto	l596
  4238  07E9                     u3870:
  4239  07E9                     l3068:
  4240  07E9  09E2               	comf	___fltol@f1,f
  4241  07EA  09E3               	comf	___fltol@f1+1,f
  4242  07EB  09E4               	comf	___fltol@f1+2,f
  4243  07EC  09E5               	comf	___fltol@f1+3,f
  4244  07ED  0AE2               	incf	___fltol@f1,f
  4245  07EE  1903               	skipnz
  4246  07EF  0AE3               	incf	___fltol@f1+1,f
  4247  07F0  1903               	skipnz
  4248  07F1  0AE4               	incf	___fltol@f1+2,f
  4249  07F2  1903               	skipnz
  4250  07F3  0AE5               	incf	___fltol@f1+3,f
  4251  07F4                     l596:
  4252  07F4                     l586:
  4253  07F4  0008               	return
  4254  07F5                     __end_of___fltol:
  4255                           
  4256                           	psect	text17
  4257  0051                     __ptext17:	
  4258 ;; *************** function ___flmul *****************
  4259 ;; Defined at:
  4260 ;;		line 8 in file "C:\Program Files (x86)\Microchip\MPLABX\v2.20\pic\sources\c90\common\sprcmul.c"
  4261 ;; Parameters:    Size  Location     Type
  4262 ;;  b               4   40[BANK0 ] long 
  4263 ;;  a               4   44[BANK0 ] long 
  4264 ;; Auto vars:     Size  Location     Type
  4265 ;;  prod            4   60[BANK0 ] struct .
  4266 ;;  grs             4   55[BANK0 ] unsigned long 
  4267 ;;  temp            2   64[BANK0 ] struct .
  4268 ;;  bexp            1   59[BANK0 ] unsigned char 
  4269 ;;  aexp            1   54[BANK0 ] unsigned char 
  4270 ;;  sign            1   53[BANK0 ] unsigned char 
  4271 ;; Return value:  Size  Location     Type
  4272 ;;                  4   40[BANK0 ] unsigned char 
  4273 ;; Registers used:
  4274 ;;		wreg, status,2, status,0, btemp+1, pclath, cstack
  4275 ;; Tracked objects:
  4276 ;;		On entry : 0/0
  4277 ;;		On exit  : 0/0
  4278 ;;		Unchanged: 0/0
  4279 ;; Data sizes:     COMMON   BANK0   BANK1   BANK3   BANK2
  4280 ;;      Params:         0       8       0       0       0
  4281 ;;      Locals:         0      13       0       0       0
  4282 ;;      Temps:          0       5       0       0       0
  4283 ;;      Totals:         0      26       0       0       0
  4284 ;;Total ram usage:       26 bytes
  4285 ;; Hardware stack levels used:    1
  4286 ;; Hardware stack levels required when called:    2
  4287 ;; This function calls:
  4288 ;;		__Umul8_16
  4289 ;; This function is called by:
  4290 ;;		_PWMDuty
  4291 ;; This function uses a non-reentrant model
  4292 ;;
  4293                           
  4294                           
  4295                           ;psect for function ___flmul
  4296  0051                     ___flmul:
  4297  0051                     l3070:	
  4298                           ;incstack = 0
  4299                           ; Regs used in ___flmul: [wreg+status,2+status,0+btemp+1+pclath+cstack]
  4300                           
  4301  0051  1283               	bcf	3,5	;RP0=0, select bank0
  4302  0052  1303               	bcf	3,6	;RP1=0, select bank0
  4303  0053  084B               	movf	___flmul@b+3,w
  4304  0054  3980               	andlw	128
  4305  0055  00FF               	movwf	btemp+1
  4306  0056  087F               	movf	btemp+1,w
  4307  0057  00D5               	movwf	___flmul@sign
  4308  0058                     l3072:
  4309  0058  084B               	movf	___flmul@b+3,w
  4310  0059  00D0               	movwf	??___flmul
  4311  005A  0750               	addwf	??___flmul,w
  4312  005B  00FF               	movwf	btemp+1
  4313  005C  087F               	movf	btemp+1,w
  4314  005D  00DB               	movwf	___flmul@bexp
  4315  005E                     l3074:
  4316  005E  1FCA               	btfss	___flmul@b+2,7
  4317  005F  2861               	goto	u3881
  4318  0060  2862               	goto	u3880
  4319  0061                     u3881:
  4320  0061  2863               	goto	l3078
  4321  0062                     u3880:
  4322  0062                     l3076:
  4323  0062  145B               	bsf	___flmul@bexp,0
  4324  0063                     l3078:
  4325  0063  085B               	movf	___flmul@bexp,w
  4326  0064  1903               	btfsc	3,2
  4327  0065  2867               	goto	u3891
  4328  0066  2868               	goto	u3890
  4329  0067                     u3891:
  4330  0067  2877               	goto	l3086
  4331  0068                     u3890:
  4332  0068                     l3080:
  4333  0068  0A5B               	incf	___flmul@bexp,w
  4334  0069  1D03               	btfss	3,2
  4335  006A  286C               	goto	u3901
  4336  006B  286D               	goto	u3900
  4337  006C                     u3901:
  4338  006C  2875               	goto	l3084
  4339  006D                     u3900:
  4340  006D                     l3082:
  4341  006D  3000               	movlw	0
  4342  006E  00CB               	movwf	___flmul@b+3
  4343  006F  3000               	movlw	0
  4344  0070  00CA               	movwf	___flmul@b+2
  4345  0071  3000               	movlw	0
  4346  0072  00C9               	movwf	___flmul@b+1
  4347  0073  3000               	movlw	0
  4348  0074  00C8               	movwf	___flmul@b
  4349  0075                     l3084:
  4350  0075  17CA               	bsf	___flmul@b+2,7
  4351  0076  287F               	goto	l3088
  4352  0077                     l3086:
  4353  0077  3000               	movlw	0
  4354  0078  00CB               	movwf	___flmul@b+3
  4355  0079  3000               	movlw	0
  4356  007A  00CA               	movwf	___flmul@b+2
  4357  007B  3000               	movlw	0
  4358  007C  00C9               	movwf	___flmul@b+1
  4359  007D  3000               	movlw	0
  4360  007E  00C8               	movwf	___flmul@b
  4361  007F                     l3088:
  4362  007F  084F               	movf	___flmul@a+3,w
  4363  0080  3980               	andlw	128
  4364  0081  00FF               	movwf	btemp+1
  4365  0082  087F               	movf	btemp+1,w
  4366  0083  06D5               	xorwf	___flmul@sign,f
  4367  0084                     l3090:
  4368  0084  084F               	movf	___flmul@a+3,w
  4369  0085  00D0               	movwf	??___flmul
  4370  0086  0750               	addwf	??___flmul,w
  4371  0087  00FF               	movwf	btemp+1
  4372  0088  087F               	movf	btemp+1,w
  4373  0089  00D6               	movwf	___flmul@aexp
  4374  008A                     l3092:
  4375  008A  1FCE               	btfss	___flmul@a+2,7
  4376  008B  288D               	goto	u3911
  4377  008C  288E               	goto	u3910
  4378  008D                     u3911:
  4379  008D  288F               	goto	l3096
  4380  008E                     u3910:
  4381  008E                     l3094:
  4382  008E  1456               	bsf	___flmul@aexp,0
  4383  008F                     l3096:
  4384  008F  0856               	movf	___flmul@aexp,w
  4385  0090  1903               	btfsc	3,2
  4386  0091  2893               	goto	u3921
  4387  0092  2894               	goto	u3920
  4388  0093                     u3921:
  4389  0093  28A3               	goto	l3104
  4390  0094                     u3920:
  4391  0094                     l3098:
  4392  0094  0A56               	incf	___flmul@aexp,w
  4393  0095  1D03               	btfss	3,2
  4394  0096  2898               	goto	u3931
  4395  0097  2899               	goto	u3930
  4396  0098                     u3931:
  4397  0098  28A1               	goto	l3102
  4398  0099                     u3930:
  4399  0099                     l3100:
  4400  0099  3000               	movlw	0
  4401  009A  00CF               	movwf	___flmul@a+3
  4402  009B  3000               	movlw	0
  4403  009C  00CE               	movwf	___flmul@a+2
  4404  009D  3000               	movlw	0
  4405  009E  00CD               	movwf	___flmul@a+1
  4406  009F  3000               	movlw	0
  4407  00A0  00CC               	movwf	___flmul@a
  4408  00A1                     l3102:
  4409  00A1  17CE               	bsf	___flmul@a+2,7
  4410  00A2  28AB               	goto	l3106
  4411  00A3                     l3104:
  4412  00A3  3000               	movlw	0
  4413  00A4  00CF               	movwf	___flmul@a+3
  4414  00A5  3000               	movlw	0
  4415  00A6  00CE               	movwf	___flmul@a+2
  4416  00A7  3000               	movlw	0
  4417  00A8  00CD               	movwf	___flmul@a+1
  4418  00A9  3000               	movlw	0
  4419  00AA  00CC               	movwf	___flmul@a
  4420  00AB                     l3106:
  4421  00AB  0856               	movf	___flmul@aexp,w
  4422  00AC  1903               	btfsc	3,2
  4423  00AD  28AF               	goto	u3941
  4424  00AE  28B0               	goto	u3940
  4425  00AF                     u3941:
  4426  00AF  28B5               	goto	l3110
  4427  00B0                     u3940:
  4428  00B0                     l3108:
  4429  00B0  085B               	movf	___flmul@bexp,w
  4430  00B1  1D03               	btfss	3,2
  4431  00B2  28B4               	goto	u3951
  4432  00B3  28B5               	goto	u3950
  4433  00B4                     u3951:
  4434  00B4  28BE               	goto	l3114
  4435  00B5                     u3950:
  4436  00B5                     l3110:
  4437  00B5  3000               	movlw	0
  4438  00B6  00CB               	movwf	?___flmul+3
  4439  00B7  3000               	movlw	0
  4440  00B8  00CA               	movwf	?___flmul+2
  4441  00B9  3000               	movlw	0
  4442  00BA  00C9               	movwf	?___flmul+1
  4443  00BB  3000               	movlw	0
  4444  00BC  00C8               	movwf	?___flmul
  4445  00BD  2BB1               	goto	l789
  4446  00BE                     l3114:
  4447  00BE  0848               	movf	___flmul@b,w
  4448  00BF  00FF               	movwf	btemp+1
  4449  00C0  087F               	movf	btemp+1,w
  4450  00C1  00F4               	movwf	__Umul8_16@multiplicand
  4451  00C2  084E               	movf	___flmul@a+2,w
  4452  00C3  120A  158A  21E9  120A  118A  	fcall	__Umul8_16
  4453  00C8  0875               	movf	?__Umul8_16+1,w
  4454  00C9  1283               	bcf	3,5	;RP0=0, select bank0
  4455  00CA  1303               	bcf	3,6	;RP1=0, select bank0
  4456  00CB  00E1               	movwf	___flmul@temp+1
  4457  00CC  0874               	movf	?__Umul8_16,w
  4458  00CD  00E0               	movwf	___flmul@temp
  4459  00CE                     l3116:
  4460  00CE  0860               	movf	___flmul@temp,w
  4461  00CF  00D0               	movwf	??___flmul
  4462  00D0  01D1               	clrf	??___flmul+1
  4463  00D1  01D2               	clrf	??___flmul+2
  4464  00D2  01D3               	clrf	??___flmul+3
  4465  00D3  0853               	movf	??___flmul+3,w
  4466  00D4  00DA               	movwf	___flmul@grs+3
  4467  00D5  0852               	movf	??___flmul+2,w
  4468  00D6  00D9               	movwf	___flmul@grs+2
  4469  00D7  0851               	movf	??___flmul+1,w
  4470  00D8  00D8               	movwf	___flmul@grs+1
  4471  00D9  0850               	movf	??___flmul,w
  4472  00DA  00D7               	movwf	___flmul@grs
  4473  00DB                     l3118:
  4474  00DB  0861               	movf	___flmul@temp+1,w
  4475  00DC  00D0               	movwf	??___flmul
  4476  00DD  01D1               	clrf	??___flmul+1
  4477  00DE  01D2               	clrf	??___flmul+2
  4478  00DF  01D3               	clrf	??___flmul+3
  4479  00E0  0853               	movf	??___flmul+3,w
  4480  00E1  00DF               	movwf	___flmul@prod+3
  4481  00E2  0852               	movf	??___flmul+2,w
  4482  00E3  00DE               	movwf	___flmul@prod+2
  4483  00E4  0851               	movf	??___flmul+1,w
  4484  00E5  00DD               	movwf	___flmul@prod+1
  4485  00E6  0850               	movf	??___flmul,w
  4486  00E7  00DC               	movwf	___flmul@prod
  4487  00E8  0849               	movf	___flmul@b+1,w
  4488  00E9  00FF               	movwf	btemp+1
  4489  00EA  087F               	movf	btemp+1,w
  4490  00EB  00F4               	movwf	__Umul8_16@multiplicand
  4491  00EC  084D               	movf	___flmul@a+1,w
  4492  00ED  120A  158A  21E9  120A  118A  	fcall	__Umul8_16
  4493  00F2  0875               	movf	?__Umul8_16+1,w
  4494  00F3  1283               	bcf	3,5	;RP0=0, select bank0
  4495  00F4  1303               	bcf	3,6	;RP1=0, select bank0
  4496  00F5  00E1               	movwf	___flmul@temp+1
  4497  00F6  0874               	movf	?__Umul8_16,w
  4498  00F7  00E0               	movwf	___flmul@temp
  4499  00F8                     l3120:
  4500  00F8  0860               	movf	___flmul@temp,w
  4501  00F9  00D0               	movwf	??___flmul
  4502  00FA  01D1               	clrf	??___flmul+1
  4503  00FB  01D2               	clrf	??___flmul+2
  4504  00FC  01D3               	clrf	??___flmul+3
  4505  00FD  0850               	movf	??___flmul,w
  4506  00FE  07D7               	addwf	___flmul@grs,f
  4507  00FF  0851               	movf	??___flmul+1,w
  4508  0100  1103               	clrz
  4509  0101  1803               	skipnc
  4510  0102  3E01               	addlw	1
  4511  0103  1903               	skipnz
  4512  0104  2906               	goto	u3961
  4513  0105  07D8               	addwf	___flmul@grs+1,f
  4514  0106                     u3961:
  4515  0106  0852               	movf	??___flmul+2,w
  4516  0107  1103               	clrz
  4517  0108  1803               	skipnc
  4518  0109  3E01               	addlw	1
  4519  010A  1903               	skipnz
  4520  010B  290D               	goto	u3962
  4521  010C  07D9               	addwf	___flmul@grs+2,f
  4522  010D                     u3962:
  4523  010D  0853               	movf	??___flmul+3,w
  4524  010E  1103               	clrz
  4525  010F  1803               	skipnc
  4526  0110  3E01               	addlw	1
  4527  0111  1903               	skipnz
  4528  0112  2914               	goto	u3963
  4529  0113  07DA               	addwf	___flmul@grs+3,f
  4530  0114                     u3963:
  4531  0114                     l3122:
  4532  0114  0861               	movf	___flmul@temp+1,w
  4533  0115  00D0               	movwf	??___flmul
  4534  0116  01D1               	clrf	??___flmul+1
  4535  0117  01D2               	clrf	??___flmul+2
  4536  0118  01D3               	clrf	??___flmul+3
  4537  0119  0850               	movf	??___flmul,w
  4538  011A  07DC               	addwf	___flmul@prod,f
  4539  011B  0851               	movf	??___flmul+1,w
  4540  011C  1103               	clrz
  4541  011D  1803               	skipnc
  4542  011E  3E01               	addlw	1
  4543  011F  1903               	skipnz
  4544  0120  2922               	goto	u3971
  4545  0121  07DD               	addwf	___flmul@prod+1,f
  4546  0122                     u3971:
  4547  0122  0852               	movf	??___flmul+2,w
  4548  0123  1103               	clrz
  4549  0124  1803               	skipnc
  4550  0125  3E01               	addlw	1
  4551  0126  1903               	skipnz
  4552  0127  2929               	goto	u3972
  4553  0128  07DE               	addwf	___flmul@prod+2,f
  4554  0129                     u3972:
  4555  0129  0853               	movf	??___flmul+3,w
  4556  012A  1103               	clrz
  4557  012B  1803               	skipnc
  4558  012C  3E01               	addlw	1
  4559  012D  1903               	skipnz
  4560  012E  2930               	goto	u3973
  4561  012F  07DF               	addwf	___flmul@prod+3,f
  4562  0130                     u3973:
  4563  0130  084A               	movf	___flmul@b+2,w
  4564  0131  00FF               	movwf	btemp+1
  4565  0132  087F               	movf	btemp+1,w
  4566  0133  00F4               	movwf	__Umul8_16@multiplicand
  4567  0134  084C               	movf	___flmul@a,w
  4568  0135  120A  158A  21E9  120A  118A  	fcall	__Umul8_16
  4569  013A  0875               	movf	?__Umul8_16+1,w
  4570  013B  1283               	bcf	3,5	;RP0=0, select bank0
  4571  013C  1303               	bcf	3,6	;RP1=0, select bank0
  4572  013D  00E1               	movwf	___flmul@temp+1
  4573  013E  0874               	movf	?__Umul8_16,w
  4574  013F  00E0               	movwf	___flmul@temp
  4575  0140                     l3124:
  4576  0140  0860               	movf	___flmul@temp,w
  4577  0141  00D0               	movwf	??___flmul
  4578  0142  01D1               	clrf	??___flmul+1
  4579  0143  01D2               	clrf	??___flmul+2
  4580  0144  01D3               	clrf	??___flmul+3
  4581  0145  0850               	movf	??___flmul,w
  4582  0146  07D7               	addwf	___flmul@grs,f
  4583  0147  0851               	movf	??___flmul+1,w
  4584  0148  1103               	clrz
  4585  0149  1803               	skipnc
  4586  014A  3E01               	addlw	1
  4587  014B  1903               	skipnz
  4588  014C  294E               	goto	u3981
  4589  014D  07D8               	addwf	___flmul@grs+1,f
  4590  014E                     u3981:
  4591  014E  0852               	movf	??___flmul+2,w
  4592  014F  1103               	clrz
  4593  0150  1803               	skipnc
  4594  0151  3E01               	addlw	1
  4595  0152  1903               	skipnz
  4596  0153  2955               	goto	u3982
  4597  0154  07D9               	addwf	___flmul@grs+2,f
  4598  0155                     u3982:
  4599  0155  0853               	movf	??___flmul+3,w
  4600  0156  1103               	clrz
  4601  0157  1803               	skipnc
  4602  0158  3E01               	addlw	1
  4603  0159  1903               	skipnz
  4604  015A  295C               	goto	u3983
  4605  015B  07DA               	addwf	___flmul@grs+3,f
  4606  015C                     u3983:
  4607  015C                     l3126:
  4608  015C  0861               	movf	___flmul@temp+1,w
  4609  015D  00D0               	movwf	??___flmul
  4610  015E  01D1               	clrf	??___flmul+1
  4611  015F  01D2               	clrf	??___flmul+2
  4612  0160  01D3               	clrf	??___flmul+3
  4613  0161  0850               	movf	??___flmul,w
  4614  0162  07DC               	addwf	___flmul@prod,f
  4615  0163  0851               	movf	??___flmul+1,w
  4616  0164  1103               	clrz
  4617  0165  1803               	skipnc
  4618  0166  3E01               	addlw	1
  4619  0167  1903               	skipnz
  4620  0168  296A               	goto	u3991
  4621  0169  07DD               	addwf	___flmul@prod+1,f
  4622  016A                     u3991:
  4623  016A  0852               	movf	??___flmul+2,w
  4624  016B  1103               	clrz
  4625  016C  1803               	skipnc
  4626  016D  3E01               	addlw	1
  4627  016E  1903               	skipnz
  4628  016F  2971               	goto	u3992
  4629  0170  07DE               	addwf	___flmul@prod+2,f
  4630  0171                     u3992:
  4631  0171  0853               	movf	??___flmul+3,w
  4632  0172  1103               	clrz
  4633  0173  1803               	skipnc
  4634  0174  3E01               	addlw	1
  4635  0175  1903               	skipnz
  4636  0176  2978               	goto	u3993
  4637  0177  07DF               	addwf	___flmul@prod+3,f
  4638  0178                     u3993:
  4639  0178                     l3128:
  4640  0178  3008               	movlw	8
  4641  0179  00D0               	movwf	??___flmul
  4642  017A                     u4005:
  4643  017A  1003               	clrc
  4644  017B  0DD7               	rlf	___flmul@grs,f
  4645  017C  0DD8               	rlf	___flmul@grs+1,f
  4646  017D  0DD9               	rlf	___flmul@grs+2,f
  4647  017E  0DDA               	rlf	___flmul@grs+3,f
  4648  017F  0BD0               	decfsz	??___flmul,f
  4649  0180  297A               	goto	u4005
  4650  0181                     l3130:
  4651  0181  0849               	movf	___flmul@b+1,w
  4652  0182  00FF               	movwf	btemp+1
  4653  0183  087F               	movf	btemp+1,w
  4654  0184  00F4               	movwf	__Umul8_16@multiplicand
  4655  0185  084C               	movf	___flmul@a,w
  4656  0186  120A  158A  21E9  120A  118A  	fcall	__Umul8_16
  4657  018B  0875               	movf	?__Umul8_16+1,w
  4658  018C  1283               	bcf	3,5	;RP0=0, select bank0
  4659  018D  1303               	bcf	3,6	;RP1=0, select bank0
  4660  018E  00E1               	movwf	___flmul@temp+1
  4661  018F  0874               	movf	?__Umul8_16,w
  4662  0190  00E0               	movwf	___flmul@temp
  4663  0191                     l3132:
  4664  0191  0860               	movf	___flmul@temp,w
  4665  0192  00D0               	movwf	??___flmul
  4666  0193  0861               	movf	___flmul@temp+1,w
  4667  0194  00D1               	movwf	??___flmul+1
  4668  0195  01D2               	clrf	??___flmul+2
  4669  0196  01D3               	clrf	??___flmul+3
  4670  0197  0850               	movf	??___flmul,w
  4671  0198  07D7               	addwf	___flmul@grs,f
  4672  0199  0851               	movf	??___flmul+1,w
  4673  019A  1103               	clrz
  4674  019B  1803               	skipnc
  4675  019C  3E01               	addlw	1
  4676  019D  1903               	skipnz
  4677  019E  29A0               	goto	u4011
  4678  019F  07D8               	addwf	___flmul@grs+1,f
  4679  01A0                     u4011:
  4680  01A0  0852               	movf	??___flmul+2,w
  4681  01A1  1103               	clrz
  4682  01A2  1803               	skipnc
  4683  01A3  3E01               	addlw	1
  4684  01A4  1903               	skipnz
  4685  01A5  29A7               	goto	u4012
  4686  01A6  07D9               	addwf	___flmul@grs+2,f
  4687  01A7                     u4012:
  4688  01A7  0853               	movf	??___flmul+3,w
  4689  01A8  1103               	clrz
  4690  01A9  1803               	skipnc
  4691  01AA  3E01               	addlw	1
  4692  01AB  1903               	skipnz
  4693  01AC  29AE               	goto	u4013
  4694  01AD  07DA               	addwf	___flmul@grs+3,f
  4695  01AE                     u4013:
  4696  01AE                     l3134:
  4697  01AE  0848               	movf	___flmul@b,w
  4698  01AF  00FF               	movwf	btemp+1
  4699  01B0  087F               	movf	btemp+1,w
  4700  01B1  00F4               	movwf	__Umul8_16@multiplicand
  4701  01B2  084D               	movf	___flmul@a+1,w
  4702  01B3  120A  158A  21E9  120A  118A  	fcall	__Umul8_16
  4703  01B8  0875               	movf	?__Umul8_16+1,w
  4704  01B9  1283               	bcf	3,5	;RP0=0, select bank0
  4705  01BA  1303               	bcf	3,6	;RP1=0, select bank0
  4706  01BB  00E1               	movwf	___flmul@temp+1
  4707  01BC  0874               	movf	?__Umul8_16,w
  4708  01BD  00E0               	movwf	___flmul@temp
  4709  01BE                     l3136:
  4710  01BE  0860               	movf	___flmul@temp,w
  4711  01BF  00D0               	movwf	??___flmul
  4712  01C0  0861               	movf	___flmul@temp+1,w
  4713  01C1  00D1               	movwf	??___flmul+1
  4714  01C2  01D2               	clrf	??___flmul+2
  4715  01C3  01D3               	clrf	??___flmul+3
  4716  01C4  0850               	movf	??___flmul,w
  4717  01C5  07D7               	addwf	___flmul@grs,f
  4718  01C6  0851               	movf	??___flmul+1,w
  4719  01C7  1103               	clrz
  4720  01C8  1803               	skipnc
  4721  01C9  3E01               	addlw	1
  4722  01CA  1903               	skipnz
  4723  01CB  29CD               	goto	u4021
  4724  01CC  07D8               	addwf	___flmul@grs+1,f
  4725  01CD                     u4021:
  4726  01CD  0852               	movf	??___flmul+2,w
  4727  01CE  1103               	clrz
  4728  01CF  1803               	skipnc
  4729  01D0  3E01               	addlw	1
  4730  01D1  1903               	skipnz
  4731  01D2  29D4               	goto	u4022
  4732  01D3  07D9               	addwf	___flmul@grs+2,f
  4733  01D4                     u4022:
  4734  01D4  0853               	movf	??___flmul+3,w
  4735  01D5  1103               	clrz
  4736  01D6  1803               	skipnc
  4737  01D7  3E01               	addlw	1
  4738  01D8  1903               	skipnz
  4739  01D9  29DB               	goto	u4023
  4740  01DA  07DA               	addwf	___flmul@grs+3,f
  4741  01DB                     u4023:
  4742  01DB                     l3138:
  4743  01DB  3008               	movlw	8
  4744  01DC  00D0               	movwf	??___flmul
  4745  01DD                     u4035:
  4746  01DD  1003               	clrc
  4747  01DE  0DD7               	rlf	___flmul@grs,f
  4748  01DF  0DD8               	rlf	___flmul@grs+1,f
  4749  01E0  0DD9               	rlf	___flmul@grs+2,f
  4750  01E1  0DDA               	rlf	___flmul@grs+3,f
  4751  01E2  0BD0               	decfsz	??___flmul,f
  4752  01E3  29DD               	goto	u4035
  4753  01E4  0848               	movf	___flmul@b,w
  4754  01E5  00FF               	movwf	btemp+1
  4755  01E6  087F               	movf	btemp+1,w
  4756  01E7  00F4               	movwf	__Umul8_16@multiplicand
  4757  01E8  084C               	movf	___flmul@a,w
  4758  01E9  120A  158A  21E9  120A  118A  	fcall	__Umul8_16
  4759  01EE  0875               	movf	?__Umul8_16+1,w
  4760  01EF  1283               	bcf	3,5	;RP0=0, select bank0
  4761  01F0  1303               	bcf	3,6	;RP1=0, select bank0
  4762  01F1  00E1               	movwf	___flmul@temp+1
  4763  01F2  0874               	movf	?__Umul8_16,w
  4764  01F3  00E0               	movwf	___flmul@temp
  4765  01F4                     l3140:
  4766  01F4  0860               	movf	___flmul@temp,w
  4767  01F5  00D0               	movwf	??___flmul
  4768  01F6  0861               	movf	___flmul@temp+1,w
  4769  01F7  00D1               	movwf	??___flmul+1
  4770  01F8  01D2               	clrf	??___flmul+2
  4771  01F9  01D3               	clrf	??___flmul+3
  4772  01FA  0850               	movf	??___flmul,w
  4773  01FB  07D7               	addwf	___flmul@grs,f
  4774  01FC  0851               	movf	??___flmul+1,w
  4775  01FD  1103               	clrz
  4776  01FE  1803               	skipnc
  4777  01FF  3E01               	addlw	1
  4778  0200  1903               	skipnz
  4779  0201  2A03               	goto	u4041
  4780  0202  07D8               	addwf	___flmul@grs+1,f
  4781  0203                     u4041:
  4782  0203  0852               	movf	??___flmul+2,w
  4783  0204  1103               	clrz
  4784  0205  1803               	skipnc
  4785  0206  3E01               	addlw	1
  4786  0207  1903               	skipnz
  4787  0208  2A0A               	goto	u4042
  4788  0209  07D9               	addwf	___flmul@grs+2,f
  4789  020A                     u4042:
  4790  020A  0853               	movf	??___flmul+3,w
  4791  020B  1103               	clrz
  4792  020C  1803               	skipnc
  4793  020D  3E01               	addlw	1
  4794  020E  1903               	skipnz
  4795  020F  2A11               	goto	u4043
  4796  0210  07DA               	addwf	___flmul@grs+3,f
  4797  0211                     u4043:
  4798  0211                     l3142:
  4799  0211  0849               	movf	___flmul@b+1,w
  4800  0212  00FF               	movwf	btemp+1
  4801  0213  087F               	movf	btemp+1,w
  4802  0214  00F4               	movwf	__Umul8_16@multiplicand
  4803  0215  084E               	movf	___flmul@a+2,w
  4804  0216  120A  158A  21E9  120A  118A  	fcall	__Umul8_16
  4805  021B  0875               	movf	?__Umul8_16+1,w
  4806  021C  1283               	bcf	3,5	;RP0=0, select bank0
  4807  021D  1303               	bcf	3,6	;RP1=0, select bank0
  4808  021E  00E1               	movwf	___flmul@temp+1
  4809  021F  0874               	movf	?__Umul8_16,w
  4810  0220  00E0               	movwf	___flmul@temp
  4811  0221  0860               	movf	___flmul@temp,w
  4812  0222  00D0               	movwf	??___flmul
  4813  0223  0861               	movf	___flmul@temp+1,w
  4814  0224  00D1               	movwf	??___flmul+1
  4815  0225  01D2               	clrf	??___flmul+2
  4816  0226  01D3               	clrf	??___flmul+3
  4817  0227  0850               	movf	??___flmul,w
  4818  0228  07DC               	addwf	___flmul@prod,f
  4819  0229  0851               	movf	??___flmul+1,w
  4820  022A  1103               	clrz
  4821  022B  1803               	skipnc
  4822  022C  3E01               	addlw	1
  4823  022D  1903               	skipnz
  4824  022E  2A30               	goto	u4051
  4825  022F  07DD               	addwf	___flmul@prod+1,f
  4826  0230                     u4051:
  4827  0230  0852               	movf	??___flmul+2,w
  4828  0231  1103               	clrz
  4829  0232  1803               	skipnc
  4830  0233  3E01               	addlw	1
  4831  0234  1903               	skipnz
  4832  0235  2A37               	goto	u4052
  4833  0236  07DE               	addwf	___flmul@prod+2,f
  4834  0237                     u4052:
  4835  0237  0853               	movf	??___flmul+3,w
  4836  0238  1103               	clrz
  4837  0239  1803               	skipnc
  4838  023A  3E01               	addlw	1
  4839  023B  1903               	skipnz
  4840  023C  2A3E               	goto	u4053
  4841  023D  07DF               	addwf	___flmul@prod+3,f
  4842  023E                     u4053:
  4843  023E                     l3144:
  4844  023E  084A               	movf	___flmul@b+2,w
  4845  023F  00FF               	movwf	btemp+1
  4846  0240  087F               	movf	btemp+1,w
  4847  0241  00F4               	movwf	__Umul8_16@multiplicand
  4848  0242  084D               	movf	___flmul@a+1,w
  4849  0243  120A  158A  21E9  120A  118A  	fcall	__Umul8_16
  4850  0248  0875               	movf	?__Umul8_16+1,w
  4851  0249  1283               	bcf	3,5	;RP0=0, select bank0
  4852  024A  1303               	bcf	3,6	;RP1=0, select bank0
  4853  024B  00E1               	movwf	___flmul@temp+1
  4854  024C  0874               	movf	?__Umul8_16,w
  4855  024D  00E0               	movwf	___flmul@temp
  4856  024E                     l3146:
  4857  024E  0860               	movf	___flmul@temp,w
  4858  024F  00D0               	movwf	??___flmul
  4859  0250  0861               	movf	___flmul@temp+1,w
  4860  0251  00D1               	movwf	??___flmul+1
  4861  0252  01D2               	clrf	??___flmul+2
  4862  0253  01D3               	clrf	??___flmul+3
  4863  0254  0850               	movf	??___flmul,w
  4864  0255  07DC               	addwf	___flmul@prod,f
  4865  0256  0851               	movf	??___flmul+1,w
  4866  0257  1103               	clrz
  4867  0258  1803               	skipnc
  4868  0259  3E01               	addlw	1
  4869  025A  1903               	skipnz
  4870  025B  2A5D               	goto	u4061
  4871  025C  07DD               	addwf	___flmul@prod+1,f
  4872  025D                     u4061:
  4873  025D  0852               	movf	??___flmul+2,w
  4874  025E  1103               	clrz
  4875  025F  1803               	skipnc
  4876  0260  3E01               	addlw	1
  4877  0261  1903               	skipnz
  4878  0262  2A64               	goto	u4062
  4879  0263  07DE               	addwf	___flmul@prod+2,f
  4880  0264                     u4062:
  4881  0264  0853               	movf	??___flmul+3,w
  4882  0265  1103               	clrz
  4883  0266  1803               	skipnc
  4884  0267  3E01               	addlw	1
  4885  0268  1903               	skipnz
  4886  0269  2A6B               	goto	u4063
  4887  026A  07DF               	addwf	___flmul@prod+3,f
  4888  026B                     u4063:
  4889  026B  084A               	movf	___flmul@b+2,w
  4890  026C  00FF               	movwf	btemp+1
  4891  026D  087F               	movf	btemp+1,w
  4892  026E  00F4               	movwf	__Umul8_16@multiplicand
  4893  026F  084E               	movf	___flmul@a+2,w
  4894  0270  120A  158A  21E9  120A  118A  	fcall	__Umul8_16
  4895  0275  0875               	movf	?__Umul8_16+1,w
  4896  0276  1283               	bcf	3,5	;RP0=0, select bank0
  4897  0277  1303               	bcf	3,6	;RP1=0, select bank0
  4898  0278  00E1               	movwf	___flmul@temp+1
  4899  0279  0874               	movf	?__Umul8_16,w
  4900  027A  00E0               	movwf	___flmul@temp
  4901  027B                     l3148:
  4902  027B  0860               	movf	___flmul@temp,w
  4903  027C  00D0               	movwf	??___flmul
  4904  027D  0861               	movf	___flmul@temp+1,w
  4905  027E  00D1               	movwf	??___flmul+1
  4906  027F  01D2               	clrf	??___flmul+2
  4907  0280  01D3               	clrf	??___flmul+3
  4908  0281  3008               	movlw	8
  4909  0282                     u4075:
  4910  0282  1003               	clrc
  4911  0283  0DD0               	rlf	??___flmul,f
  4912  0284  0DD1               	rlf	??___flmul+1,f
  4913  0285  0DD2               	rlf	??___flmul+2,f
  4914  0286  0DD3               	rlf	??___flmul+3,f
  4915  0287                     u4070:
  4916  0287  3EFF               	addlw	-1
  4917  0288  1D03               	skipz
  4918  0289  2A82               	goto	u4075
  4919  028A  0850               	movf	??___flmul,w
  4920  028B  07DC               	addwf	___flmul@prod,f
  4921  028C  0851               	movf	??___flmul+1,w
  4922  028D  1103               	clrz
  4923  028E  1803               	skipnc
  4924  028F  3E01               	addlw	1
  4925  0290  1903               	skipnz
  4926  0291  2A93               	goto	u4081
  4927  0292  07DD               	addwf	___flmul@prod+1,f
  4928  0293                     u4081:
  4929  0293  0852               	movf	??___flmul+2,w
  4930  0294  1103               	clrz
  4931  0295  1803               	skipnc
  4932  0296  3E01               	addlw	1
  4933  0297  1903               	skipnz
  4934  0298  2A9A               	goto	u4082
  4935  0299  07DE               	addwf	___flmul@prod+2,f
  4936  029A                     u4082:
  4937  029A  0853               	movf	??___flmul+3,w
  4938  029B  1103               	clrz
  4939  029C  1803               	skipnc
  4940  029D  3E01               	addlw	1
  4941  029E  1903               	skipnz
  4942  029F  2AA1               	goto	u4083
  4943  02A0  07DF               	addwf	___flmul@prod+3,f
  4944  02A1                     u4083:
  4945  02A1                     l3150:
  4946  02A1  0857               	movf	___flmul@grs,w
  4947  02A2  00D0               	movwf	??___flmul
  4948  02A3  0858               	movf	___flmul@grs+1,w
  4949  02A4  00D1               	movwf	??___flmul+1
  4950  02A5  0859               	movf	___flmul@grs+2,w
  4951  02A6  00D2               	movwf	??___flmul+2
  4952  02A7  085A               	movf	___flmul@grs+3,w
  4953  02A8  00D3               	movwf	??___flmul+3
  4954  02A9  3018               	movlw	24
  4955  02AA                     u4095:
  4956  02AA  1003               	clrc
  4957  02AB  0CD3               	rrf	??___flmul+3,f
  4958  02AC  0CD2               	rrf	??___flmul+2,f
  4959  02AD  0CD1               	rrf	??___flmul+1,f
  4960  02AE  0CD0               	rrf	??___flmul,f
  4961  02AF                     u4090:
  4962  02AF  3EFF               	addlw	-1
  4963  02B0  1D03               	skipz
  4964  02B1  2AAA               	goto	u4095
  4965  02B2  0850               	movf	??___flmul,w
  4966  02B3  07DC               	addwf	___flmul@prod,f
  4967  02B4  0851               	movf	??___flmul+1,w
  4968  02B5  1103               	clrz
  4969  02B6  1803               	skipnc
  4970  02B7  3E01               	addlw	1
  4971  02B8  1903               	skipnz
  4972  02B9  2ABB               	goto	u4101
  4973  02BA  07DD               	addwf	___flmul@prod+1,f
  4974  02BB                     u4101:
  4975  02BB  0852               	movf	??___flmul+2,w
  4976  02BC  1103               	clrz
  4977  02BD  1803               	skipnc
  4978  02BE  3E01               	addlw	1
  4979  02BF  1903               	skipnz
  4980  02C0  2AC2               	goto	u4102
  4981  02C1  07DE               	addwf	___flmul@prod+2,f
  4982  02C2                     u4102:
  4983  02C2  0853               	movf	??___flmul+3,w
  4984  02C3  1103               	clrz
  4985  02C4  1803               	skipnc
  4986  02C5  3E01               	addlw	1
  4987  02C6  1903               	skipnz
  4988  02C7  2AC9               	goto	u4103
  4989  02C8  07DF               	addwf	___flmul@prod+3,f
  4990  02C9                     u4103:
  4991  02C9                     l3152:
  4992  02C9  3008               	movlw	8
  4993  02CA  00D0               	movwf	??___flmul
  4994  02CB                     u4115:
  4995  02CB  1003               	clrc
  4996  02CC  0DD7               	rlf	___flmul@grs,f
  4997  02CD  0DD8               	rlf	___flmul@grs+1,f
  4998  02CE  0DD9               	rlf	___flmul@grs+2,f
  4999  02CF  0DDA               	rlf	___flmul@grs+3,f
  5000  02D0  0BD0               	decfsz	??___flmul,f
  5001  02D1  2ACB               	goto	u4115
  5002  02D2                     l3154:
  5003  02D2  085B               	movf	___flmul@bexp,w
  5004  02D3  0756               	addwf	___flmul@aexp,w
  5005  02D4  00D0               	movwf	??___flmul
  5006  02D5  01D1               	clrf	??___flmul+1
  5007  02D6  0DD1               	rlf	??___flmul+1,f
  5008  02D7  0850               	movf	??___flmul,w
  5009  02D8  3E82               	addlw	130
  5010  02D9  00E0               	movwf	___flmul@temp
  5011  02DA  0851               	movf	??___flmul+1,w
  5012  02DB  1803               	skipnc
  5013  02DC  3E01               	addlw	1
  5014  02DD  3EFF               	addlw	255
  5015  02DE  00E1               	movwf	___flmul@temp+1
  5016  02DF  2AFD               	goto	l3166
  5017  02E0                     l3156:
  5018  02E0  3001               	movlw	1
  5019  02E1  00D0               	movwf	??___flmul
  5020  02E2                     u4125:
  5021  02E2  1003               	clrc
  5022  02E3  0DDC               	rlf	___flmul@prod,f
  5023  02E4  0DDD               	rlf	___flmul@prod+1,f
  5024  02E5  0DDE               	rlf	___flmul@prod+2,f
  5025  02E6  0DDF               	rlf	___flmul@prod+3,f
  5026  02E7  0BD0               	decfsz	??___flmul,f
  5027  02E8  2AE2               	goto	u4125
  5028  02E9                     l3158:
  5029  02E9  1FDA               	btfss	___flmul@grs+3,7
  5030  02EA  2AEC               	goto	u4131
  5031  02EB  2AED               	goto	u4130
  5032  02EC                     u4131:
  5033  02EC  2AEE               	goto	l3162
  5034  02ED                     u4130:
  5035  02ED                     l3160:
  5036  02ED  145C               	bsf	___flmul@prod,0
  5037  02EE                     l3162:
  5038  02EE  3001               	movlw	1
  5039  02EF  00D0               	movwf	??___flmul
  5040  02F0                     u4145:
  5041  02F0  1003               	clrc
  5042  02F1  0DD7               	rlf	___flmul@grs,f
  5043  02F2  0DD8               	rlf	___flmul@grs+1,f
  5044  02F3  0DD9               	rlf	___flmul@grs+2,f
  5045  02F4  0DDA               	rlf	___flmul@grs+3,f
  5046  02F5  0BD0               	decfsz	??___flmul,f
  5047  02F6  2AF0               	goto	u4145
  5048  02F7                     l3164:
  5049  02F7  30FF               	movlw	255
  5050  02F8  07E0               	addwf	___flmul@temp,f
  5051  02F9  1803               	skipnc
  5052  02FA  0AE1               	incf	___flmul@temp+1,f
  5053  02FB  30FF               	movlw	255
  5054  02FC  07E1               	addwf	___flmul@temp+1,f
  5055  02FD                     l3166:
  5056  02FD  1FDE               	btfss	___flmul@prod+2,7
  5057  02FE  2B00               	goto	u4151
  5058  02FF  2B01               	goto	u4150
  5059  0300                     u4151:
  5060  0300  2AE0               	goto	l3156
  5061  0301                     u4150:
  5062  0301                     l3168:
  5063  0301  01D6               	clrf	___flmul@aexp
  5064  0302                     l3170:
  5065  0302  1FDA               	btfss	___flmul@grs+3,7
  5066  0303  2B05               	goto	u4161
  5067  0304  2B06               	goto	u4160
  5068  0305                     u4161:
  5069  0305  2B22               	goto	l3178
  5070  0306                     u4160:
  5071  0306                     l3172:
  5072  0306  30FF               	movlw	255
  5073  0307  0557               	andwf	___flmul@grs,w
  5074  0308  00D0               	movwf	??___flmul
  5075  0309  30FF               	movlw	255
  5076  030A  0558               	andwf	___flmul@grs+1,w
  5077  030B  00D1               	movwf	??___flmul+1
  5078  030C  30FF               	movlw	255
  5079  030D  0559               	andwf	___flmul@grs+2,w
  5080  030E  00D2               	movwf	??___flmul+2
  5081  030F  307F               	movlw	127
  5082  0310  055A               	andwf	___flmul@grs+3,w
  5083  0311  00D3               	movwf	??___flmul+3
  5084  0312  0853               	movf	??___flmul+3,w
  5085  0313  0452               	iorwf	??___flmul+2,w
  5086  0314  0451               	iorwf	??___flmul+1,w
  5087  0315  0450               	iorwf	??___flmul,w
  5088  0316  1903               	skipnz
  5089  0317  2B19               	goto	u4171
  5090  0318  2B1A               	goto	u4170
  5091  0319                     u4171:
  5092  0319  2B1D               	goto	l795
  5093  031A                     u4170:
  5094  031A                     l3174:
  5095  031A  01D6               	clrf	___flmul@aexp
  5096  031B  0AD6               	incf	___flmul@aexp,f
  5097  031C  2B22               	goto	l3178
  5098  031D                     l795:
  5099  031D  1C5C               	btfss	___flmul@prod,0
  5100  031E  2B20               	goto	u4181
  5101  031F  2B21               	goto	u4180
  5102  0320                     u4181:
  5103  0320  2B22               	goto	l3178
  5104  0321                     u4180:
  5105  0321  2B1A               	goto	l3174
  5106  0322                     l3178:
  5107  0322  0856               	movf	___flmul@aexp,w
  5108  0323  1903               	btfsc	3,2
  5109  0324  2B26               	goto	u4191
  5110  0325  2B27               	goto	u4190
  5111  0326                     u4191:
  5112  0326  2B58               	goto	l3188
  5113  0327                     u4190:
  5114  0327                     l3180:
  5115  0327  3001               	movlw	1
  5116  0328  07DC               	addwf	___flmul@prod,f
  5117  0329  3000               	movlw	0
  5118  032A  1803               	skipnc
  5119  032B  3001               	movlw	1
  5120  032C  07DD               	addwf	___flmul@prod+1,f
  5121  032D  3000               	movlw	0
  5122  032E  1803               	skipnc
  5123  032F  3001               	movlw	1
  5124  0330  07DE               	addwf	___flmul@prod+2,f
  5125  0331  3000               	movlw	0
  5126  0332  1803               	skipnc
  5127  0333  3001               	movlw	1
  5128  0334  07DF               	addwf	___flmul@prod+3,f
  5129  0335                     l3182:
  5130  0335  1C5F               	btfss	___flmul@prod+3,0
  5131  0336  2B38               	goto	u4201
  5132  0337  2B39               	goto	u4200
  5133  0338                     u4201:
  5134  0338  2B58               	goto	l3188
  5135  0339                     u4200:
  5136  0339                     l3184:
  5137  0339  085C               	movf	___flmul@prod,w
  5138  033A  00D0               	movwf	??___flmul
  5139  033B  085D               	movf	___flmul@prod+1,w
  5140  033C  00D1               	movwf	??___flmul+1
  5141  033D  085E               	movf	___flmul@prod+2,w
  5142  033E  00D2               	movwf	??___flmul+2
  5143  033F  085F               	movf	___flmul@prod+3,w
  5144  0340  00D3               	movwf	??___flmul+3
  5145  0341  3001               	movlw	1
  5146  0342  00D4               	movwf	??___flmul+4
  5147  0343                     u4215:
  5148  0343  0D53               	rlf	??___flmul+3,w
  5149  0344  0CD3               	rrf	??___flmul+3,f
  5150  0345  0CD2               	rrf	??___flmul+2,f
  5151  0346  0CD1               	rrf	??___flmul+1,f
  5152  0347  0CD0               	rrf	??___flmul,f
  5153  0348                     u4210:
  5154  0348  0BD4               	decfsz	??___flmul+4,f
  5155  0349  2B43               	goto	u4215
  5156  034A  0853               	movf	??___flmul+3,w
  5157  034B  00DF               	movwf	___flmul@prod+3
  5158  034C  0852               	movf	??___flmul+2,w
  5159  034D  00DE               	movwf	___flmul@prod+2
  5160  034E  0851               	movf	??___flmul+1,w
  5161  034F  00DD               	movwf	___flmul@prod+1
  5162  0350  0850               	movf	??___flmul,w
  5163  0351  00DC               	movwf	___flmul@prod
  5164  0352                     l3186:
  5165  0352  3001               	movlw	1
  5166  0353  07E0               	addwf	___flmul@temp,f
  5167  0354  1803               	skipnc
  5168  0355  0AE1               	incf	___flmul@temp+1,f
  5169  0356  3000               	movlw	0
  5170  0357  07E1               	addwf	___flmul@temp+1,f
  5171  0358                     l3188:
  5172  0358  0861               	movf	___flmul@temp+1,w
  5173  0359  3A80               	xorlw	128
  5174  035A  00FF               	movwf	btemp+1
  5175  035B  3080               	movlw	128
  5176  035C  027F               	subwf	btemp+1,w
  5177  035D  1D03               	skipz
  5178  035E  2B61               	goto	u4225
  5179  035F  30FF               	movlw	255
  5180  0360  0260               	subwf	___flmul@temp,w
  5181  0361                     u4225:
  5182  0361  1C03               	skipc
  5183  0362  2B64               	goto	u4221
  5184  0363  2B65               	goto	u4220
  5185  0364                     u4221:
  5186  0364  2B70               	goto	l3192
  5187  0365                     u4220:
  5188  0365                     l3190:
  5189  0365  307F               	movlw	127
  5190  0366  1283               	bcf	3,5	;RP0=0, select bank0
  5191  0367  1303               	bcf	3,6	;RP1=0, select bank0
  5192  0368  00DF               	movwf	___flmul@prod+3
  5193  0369  3080               	movlw	128
  5194  036A  00DE               	movwf	___flmul@prod+2
  5195  036B  3000               	movlw	0
  5196  036C  00DD               	movwf	___flmul@prod+1
  5197  036D  3000               	movlw	0
  5198  036E  00DC               	movwf	___flmul@prod
  5199  036F  2BA5               	goto	l801
  5200  0370                     l3192:
  5201  0370  1283               	bcf	3,5	;RP0=0, select bank0
  5202  0371  1303               	bcf	3,6	;RP1=0, select bank0
  5203  0372  0861               	movf	___flmul@temp+1,w
  5204  0373  3A80               	xorlw	128
  5205  0374  00FF               	movwf	btemp+1
  5206  0375  3080               	movlw	128
  5207  0376  027F               	subwf	btemp+1,w
  5208  0377  1D03               	skipz
  5209  0378  2B7B               	goto	u4235
  5210  0379  3001               	movlw	1
  5211  037A  0260               	subwf	___flmul@temp,w
  5212  037B                     u4235:
  5213  037B  1803               	skipnc
  5214  037C  2B7E               	goto	u4231
  5215  037D  2B7F               	goto	u4230
  5216  037E                     u4231:
  5217  037E  2B8B               	goto	l3198
  5218  037F                     u4230:
  5219  037F                     l3194:
  5220  037F  3000               	movlw	0
  5221  0380  1283               	bcf	3,5	;RP0=0, select bank0
  5222  0381  1303               	bcf	3,6	;RP1=0, select bank0
  5223  0382  00DF               	movwf	___flmul@prod+3
  5224  0383  3000               	movlw	0
  5225  0384  00DE               	movwf	___flmul@prod+2
  5226  0385  3000               	movlw	0
  5227  0386  00DD               	movwf	___flmul@prod+1
  5228  0387  3000               	movlw	0
  5229  0388  00DC               	movwf	___flmul@prod
  5230  0389                     l3196:
  5231  0389  01D5               	clrf	___flmul@sign
  5232  038A  2BA5               	goto	l801
  5233  038B                     l3198:
  5234  038B  1283               	bcf	3,5	;RP0=0, select bank0
  5235  038C  1303               	bcf	3,6	;RP1=0, select bank0
  5236  038D  0860               	movf	___flmul@temp,w
  5237  038E  00FF               	movwf	btemp+1
  5238  038F  087F               	movf	btemp+1,w
  5239  0390  00DB               	movwf	___flmul@bexp
  5240  0391                     l3200:
  5241  0391  30FF               	movlw	255
  5242  0392  05DC               	andwf	___flmul@prod,f
  5243  0393  30FF               	movlw	255
  5244  0394  05DD               	andwf	___flmul@prod+1,f
  5245  0395  307F               	movlw	127
  5246  0396  05DE               	andwf	___flmul@prod+2,f
  5247  0397  3000               	movlw	0
  5248  0398  05DF               	andwf	___flmul@prod+3,f
  5249  0399                     l3202:
  5250  0399  1C5B               	btfss	___flmul@bexp,0
  5251  039A  2B9C               	goto	u4241
  5252  039B  2B9D               	goto	u4240
  5253  039C                     u4241:
  5254  039C  2B9E               	goto	l3206
  5255  039D                     u4240:
  5256  039D                     l3204:
  5257  039D  17DE               	bsf	___flmul@prod+2,7
  5258  039E                     l3206:
  5259  039E  085B               	movf	___flmul@bexp,w
  5260  039F  00D0               	movwf	??___flmul
  5261  03A0  1003               	clrc
  5262  03A1  0C50               	rrf	??___flmul,w
  5263  03A2  00FF               	movwf	btemp+1
  5264  03A3  087F               	movf	btemp+1,w
  5265  03A4  00DF               	movwf	___flmul@prod+3
  5266  03A5                     l801:
  5267  03A5  0855               	movf	___flmul@sign,w
  5268  03A6  00FF               	movwf	btemp+1
  5269  03A7  087F               	movf	btemp+1,w
  5270  03A8  04DF               	iorwf	___flmul@prod+3,f
  5271  03A9                     l3208:
  5272  03A9  085F               	movf	___flmul@prod+3,w
  5273  03AA  00CB               	movwf	?___flmul+3
  5274  03AB  085E               	movf	___flmul@prod+2,w
  5275  03AC  00CA               	movwf	?___flmul+2
  5276  03AD  085D               	movf	___flmul@prod+1,w
  5277  03AE  00C9               	movwf	?___flmul+1
  5278  03AF  085C               	movf	___flmul@prod,w
  5279  03B0  00C8               	movwf	?___flmul
  5280  03B1                     l789:
  5281  03B1  0008               	return
  5282  03B2                     __end_of___flmul:
  5283                           
  5284                           	psect	text18
  5285  09E9                     __ptext18:	
  5286 ;; *************** function __Umul8_16 *****************
  5287 ;; Defined at:
  5288 ;;		line 4 in file "C:\Program Files (x86)\Microchip\MPLABX\v2.20\pic\sources\c90\common\Umul8_16.c"
  5289 ;; Parameters:    Size  Location     Type
  5290 ;;  multiplier      1    wreg     unsigned char 
  5291 ;;  multiplicand    1    4[COMMON] unsigned char 
  5292 ;; Auto vars:     Size  Location     Type
  5293 ;;  multiplier      1    6[BANK0 ] unsigned char 
  5294 ;;  word_mpld       2    4[BANK0 ] unsigned int 
  5295 ;;  product         2    2[BANK0 ] unsigned int 
  5296 ;; Return value:  Size  Location     Type
  5297 ;;                  2    4[COMMON] unsigned int 
  5298 ;; Registers used:
  5299 ;;		wreg, status,2, status,0
  5300 ;; Tracked objects:
  5301 ;;		On entry : 0/0
  5302 ;;		On exit  : 0/0
  5303 ;;		Unchanged: 0/0
  5304 ;; Data sizes:     COMMON   BANK0   BANK1   BANK3   BANK2
  5305 ;;      Params:         2       0       0       0       0
  5306 ;;      Locals:         0       5       0       0       0
  5307 ;;      Temps:          0       2       0       0       0
  5308 ;;      Totals:         2       7       0       0       0
  5309 ;;Total ram usage:        9 bytes
  5310 ;; Hardware stack levels used:    1
  5311 ;; Hardware stack levels required when called:    1
  5312 ;; This function calls:
  5313 ;;		Nothing
  5314 ;; This function is called by:
  5315 ;;		___flmul
  5316 ;; This function uses a non-reentrant model
  5317 ;;
  5318                           
  5319                           
  5320                           ;psect for function __Umul8_16
  5321  09E9                     __Umul8_16:
  5322                           
  5323                           ;incstack = 0
  5324                           ; Regs used in __Umul8_16: [wreg+status,2+status,0]
  5325                           ;__Umul8_16@multiplier stored from wreg
  5326  09E9  1283               	bcf	3,5	;RP0=0, select bank0
  5327  09EA  1303               	bcf	3,6	;RP1=0, select bank0
  5328  09EB  00A6               	movwf	__Umul8_16@multiplier
  5329  09EC                     l2894:
  5330  09EC  01A2               	clrf	__Umul8_16@product
  5331  09ED  01A3               	clrf	__Umul8_16@product+1
  5332  09EE                     l2896:
  5333  09EE  0874               	movf	__Umul8_16@multiplicand,w
  5334  09EF  00A0               	movwf	??__Umul8_16
  5335  09F0  01A1               	clrf	??__Umul8_16+1
  5336  09F1  0820               	movf	??__Umul8_16,w
  5337  09F2  00A4               	movwf	__Umul8_16@word_mpld
  5338  09F3  0821               	movf	??__Umul8_16+1,w
  5339  09F4  00A5               	movwf	__Umul8_16@word_mpld+1
  5340  09F5                     l2898:
  5341  09F5  1C26               	btfss	__Umul8_16@multiplier,0
  5342  09F6  29F8               	goto	u3551
  5343  09F7  29F9               	goto	u3550
  5344  09F8                     u3551:
  5345  09F8  29FF               	goto	l808
  5346  09F9                     u3550:
  5347  09F9                     l2900:
  5348  09F9  0824               	movf	__Umul8_16@word_mpld,w
  5349  09FA  07A2               	addwf	__Umul8_16@product,f
  5350  09FB  1803               	skipnc
  5351  09FC  0AA3               	incf	__Umul8_16@product+1,f
  5352  09FD  0825               	movf	__Umul8_16@word_mpld+1,w
  5353  09FE  07A3               	addwf	__Umul8_16@product+1,f
  5354  09FF                     l808:
  5355  09FF  3001               	movlw	1
  5356  0A00                     u3565:
  5357  0A00  1003               	clrc
  5358  0A01  0DA4               	rlf	__Umul8_16@word_mpld,f
  5359  0A02  0DA5               	rlf	__Umul8_16@word_mpld+1,f
  5360  0A03  3EFF               	addlw	-1
  5361  0A04  1D03               	skipz
  5362  0A05  2A00               	goto	u3565
  5363  0A06  1003               	clrc
  5364  0A07  0CA6               	rrf	__Umul8_16@multiplier,f
  5365  0A08                     l2902:
  5366  0A08  0826               	movf	__Umul8_16@multiplier,w
  5367  0A09  1D03               	btfss	3,2
  5368  0A0A  2A0C               	goto	u3571
  5369  0A0B  2A0D               	goto	u3570
  5370  0A0C                     u3571:
  5371  0A0C  29F5               	goto	l2898
  5372  0A0D                     u3570:
  5373  0A0D                     l2904:
  5374  0A0D  0823               	movf	__Umul8_16@product+1,w
  5375  0A0E  00F5               	movwf	?__Umul8_16+1
  5376  0A0F  0822               	movf	__Umul8_16@product,w
  5377  0A10  00F4               	movwf	?__Umul8_16
  5378  0A11                     l810:
  5379  0A11  0008               	return
  5380  0A12                     __end_of__Umul8_16:
  5381                           
  5382                           	psect	text19
  5383  0E23                     __ptext19:	
  5384 ;; *************** function ___fldiv *****************
  5385 ;; Defined at:
  5386 ;;		line 8 in file "C:\Program Files (x86)\Microchip\MPLABX\v2.20\pic\sources\c90\common\sprcdiv.c"
  5387 ;; Parameters:    Size  Location     Type
  5388 ;;  a               4   14[BANK0 ] unsigned int 
  5389 ;;  b               4   18[BANK0 ] unsigned int 
  5390 ;; Auto vars:     Size  Location     Type
  5391 ;;  grs             4   34[BANK0 ] unsigned long 
  5392 ;;  rem             4   27[BANK0 ] unsigned long 
  5393 ;;  new_exp         2   32[BANK0 ] int 
  5394 ;;  aexp            1   39[BANK0 ] unsigned char 
  5395 ;;  bexp            1   38[BANK0 ] unsigned char 
  5396 ;;  sign            1   31[BANK0 ] unsigned char 
  5397 ;; Return value:  Size  Location     Type
  5398 ;;                  4   14[BANK0 ] unsigned char 
  5399 ;; Registers used:
  5400 ;;		wreg, status,2, status,0, btemp+1
  5401 ;; Tracked objects:
  5402 ;;		On entry : 0/0
  5403 ;;		On exit  : 0/0
  5404 ;;		Unchanged: 0/0
  5405 ;; Data sizes:     COMMON   BANK0   BANK1   BANK3   BANK2
  5406 ;;      Params:         0       8       0       0       0
  5407 ;;      Locals:         0      13       0       0       0
  5408 ;;      Temps:          0       5       0       0       0
  5409 ;;      Totals:         0      26       0       0       0
  5410 ;;Total ram usage:       26 bytes
  5411 ;; Hardware stack levels used:    1
  5412 ;; Hardware stack levels required when called:    1
  5413 ;; This function calls:
  5414 ;;		Nothing
  5415 ;; This function is called by:
  5416 ;;		_PWMDuty
  5417 ;; This function uses a non-reentrant model
  5418 ;;
  5419                           
  5420                           
  5421                           ;psect for function ___fldiv
  5422  0E23                     ___fldiv:
  5423  0E23                     l2158:	
  5424                           ;incstack = 0
  5425                           ; Regs used in ___fldiv: [wreg+status,2+status,0+btemp+1]
  5426                           
  5427  0E23  1283               	bcf	3,5	;RP0=0, select bank0
  5428  0E24  1303               	bcf	3,6	;RP1=0, select bank0
  5429  0E25  0835               	movf	___fldiv@b+3,w
  5430  0E26  3980               	andlw	128
  5431  0E27  00FF               	movwf	btemp+1
  5432  0E28  087F               	movf	btemp+1,w
  5433  0E29  00BF               	movwf	___fldiv@sign
  5434  0E2A                     l2160:
  5435  0E2A  0835               	movf	___fldiv@b+3,w
  5436  0E2B  00B6               	movwf	??___fldiv
  5437  0E2C  0736               	addwf	??___fldiv,w
  5438  0E2D  00FF               	movwf	btemp+1
  5439  0E2E  087F               	movf	btemp+1,w
  5440  0E2F  00C6               	movwf	___fldiv@bexp
  5441  0E30                     l2162:
  5442  0E30  1FB4               	btfss	___fldiv@b+2,7
  5443  0E31  2E33               	goto	u2261
  5444  0E32  2E34               	goto	u2260
  5445  0E33                     u2261:
  5446  0E33  2E35               	goto	l2166
  5447  0E34                     u2260:
  5448  0E34                     l2164:
  5449  0E34  1446               	bsf	___fldiv@bexp,0
  5450  0E35                     l2166:
  5451  0E35  0846               	movf	___fldiv@bexp,w
  5452  0E36  1903               	btfsc	3,2
  5453  0E37  2E39               	goto	u2271
  5454  0E38  2E3A               	goto	u2270
  5455  0E39                     u2271:
  5456  0E39  2E4A               	goto	l2176
  5457  0E3A                     u2270:
  5458  0E3A                     l2168:
  5459  0E3A  0A46               	incf	___fldiv@bexp,w
  5460  0E3B  1D03               	btfss	3,2
  5461  0E3C  2E3E               	goto	u2281
  5462  0E3D  2E3F               	goto	u2280
  5463  0E3E                     u2281:
  5464  0E3E  2E47               	goto	l2172
  5465  0E3F                     u2280:
  5466  0E3F                     l2170:
  5467  0E3F  3000               	movlw	0
  5468  0E40  00B5               	movwf	___fldiv@b+3
  5469  0E41  3000               	movlw	0
  5470  0E42  00B4               	movwf	___fldiv@b+2
  5471  0E43  3000               	movlw	0
  5472  0E44  00B3               	movwf	___fldiv@b+1
  5473  0E45  3000               	movlw	0
  5474  0E46  00B2               	movwf	___fldiv@b
  5475  0E47                     l2172:
  5476  0E47  17B4               	bsf	___fldiv@b+2,7
  5477  0E48                     l2174:
  5478  0E48  01B5               	clrf	___fldiv@b+3
  5479  0E49  2E52               	goto	l2178
  5480  0E4A                     l2176:
  5481  0E4A  3000               	movlw	0
  5482  0E4B  00B5               	movwf	___fldiv@b+3
  5483  0E4C  3000               	movlw	0
  5484  0E4D  00B4               	movwf	___fldiv@b+2
  5485  0E4E  3000               	movlw	0
  5486  0E4F  00B3               	movwf	___fldiv@b+1
  5487  0E50  3000               	movlw	0
  5488  0E51  00B2               	movwf	___fldiv@b
  5489  0E52                     l2178:
  5490  0E52  0831               	movf	___fldiv@a+3,w
  5491  0E53  3980               	andlw	128
  5492  0E54  00FF               	movwf	btemp+1
  5493  0E55  087F               	movf	btemp+1,w
  5494  0E56  06BF               	xorwf	___fldiv@sign,f
  5495  0E57                     l2180:
  5496  0E57  0831               	movf	___fldiv@a+3,w
  5497  0E58  00B6               	movwf	??___fldiv
  5498  0E59  0736               	addwf	??___fldiv,w
  5499  0E5A  00FF               	movwf	btemp+1
  5500  0E5B  087F               	movf	btemp+1,w
  5501  0E5C  00C7               	movwf	___fldiv@aexp
  5502  0E5D                     l2182:
  5503  0E5D  1FB0               	btfss	___fldiv@a+2,7
  5504  0E5E  2E60               	goto	u2291
  5505  0E5F  2E61               	goto	u2290
  5506  0E60                     u2291:
  5507  0E60  2E62               	goto	l2186
  5508  0E61                     u2290:
  5509  0E61                     l2184:
  5510  0E61  1447               	bsf	___fldiv@aexp,0
  5511  0E62                     l2186:
  5512  0E62  0847               	movf	___fldiv@aexp,w
  5513  0E63  1903               	btfsc	3,2
  5514  0E64  2E66               	goto	u2301
  5515  0E65  2E67               	goto	u2300
  5516  0E66                     u2301:
  5517  0E66  2E77               	goto	l2196
  5518  0E67                     u2300:
  5519  0E67                     l2188:
  5520  0E67  0A47               	incf	___fldiv@aexp,w
  5521  0E68  1D03               	btfss	3,2
  5522  0E69  2E6B               	goto	u2311
  5523  0E6A  2E6C               	goto	u2310
  5524  0E6B                     u2311:
  5525  0E6B  2E74               	goto	l2192
  5526  0E6C                     u2310:
  5527  0E6C                     l2190:
  5528  0E6C  3000               	movlw	0
  5529  0E6D  00B1               	movwf	___fldiv@a+3
  5530  0E6E  3000               	movlw	0
  5531  0E6F  00B0               	movwf	___fldiv@a+2
  5532  0E70  3000               	movlw	0
  5533  0E71  00AF               	movwf	___fldiv@a+1
  5534  0E72  3000               	movlw	0
  5535  0E73  00AE               	movwf	___fldiv@a
  5536  0E74                     l2192:
  5537  0E74  17B0               	bsf	___fldiv@a+2,7
  5538  0E75                     l2194:
  5539  0E75  01B1               	clrf	___fldiv@a+3
  5540  0E76  2E7F               	goto	l749
  5541  0E77                     l2196:
  5542  0E77  3000               	movlw	0
  5543  0E78  00B1               	movwf	___fldiv@a+3
  5544  0E79  3000               	movlw	0
  5545  0E7A  00B0               	movwf	___fldiv@a+2
  5546  0E7B  3000               	movlw	0
  5547  0E7C  00AF               	movwf	___fldiv@a+1
  5548  0E7D  3000               	movlw	0
  5549  0E7E  00AE               	movwf	___fldiv@a
  5550  0E7F                     l749:
  5551  0E7F  0831               	movf	___fldiv@a+3,w
  5552  0E80  0430               	iorwf	___fldiv@a+2,w
  5553  0E81  042F               	iorwf	___fldiv@a+1,w
  5554  0E82  042E               	iorwf	___fldiv@a,w
  5555  0E83  1D03               	skipz
  5556  0E84  2E86               	goto	u2321
  5557  0E85  2E87               	goto	u2320
  5558  0E86                     u2321:
  5559  0E86  2EA0               	goto	l2206
  5560  0E87                     u2320:
  5561  0E87                     l2198:
  5562  0E87  3000               	movlw	0
  5563  0E88  00B5               	movwf	___fldiv@b+3
  5564  0E89  3000               	movlw	0
  5565  0E8A  00B4               	movwf	___fldiv@b+2
  5566  0E8B  3000               	movlw	0
  5567  0E8C  00B3               	movwf	___fldiv@b+1
  5568  0E8D  3000               	movlw	0
  5569  0E8E  00B2               	movwf	___fldiv@b
  5570  0E8F  3080               	movlw	128
  5571  0E90  04B4               	iorwf	___fldiv@b+2,f
  5572  0E91  307F               	movlw	127
  5573  0E92  04B5               	iorwf	___fldiv@b+3,f
  5574  0E93                     l2200:
  5575  0E93  083F               	movf	___fldiv@sign,w
  5576  0E94  00FF               	movwf	btemp+1
  5577  0E95  087F               	movf	btemp+1,w
  5578  0E96  04B5               	iorwf	___fldiv@b+3,f
  5579  0E97                     l2202:
  5580  0E97  0835               	movf	___fldiv@b+3,w
  5581  0E98  00B1               	movwf	?___fldiv+3
  5582  0E99  0834               	movf	___fldiv@b+2,w
  5583  0E9A  00B0               	movwf	?___fldiv+2
  5584  0E9B  0833               	movf	___fldiv@b+1,w
  5585  0E9C  00AF               	movwf	?___fldiv+1
  5586  0E9D  0832               	movf	___fldiv@b,w
  5587  0E9E  00AE               	movwf	?___fldiv
  5588  0E9F  2FFF               	goto	l751
  5589  0EA0                     l2206:
  5590  0EA0  0846               	movf	___fldiv@bexp,w
  5591  0EA1  1D03               	btfss	3,2
  5592  0EA2  2EA4               	goto	u2331
  5593  0EA3  2EA5               	goto	u2330
  5594  0EA4                     u2331:
  5595  0EA4  2EAE               	goto	l2212
  5596  0EA5                     u2330:
  5597  0EA5                     l2208:
  5598  0EA5  3000               	movlw	0
  5599  0EA6  00B1               	movwf	?___fldiv+3
  5600  0EA7  3000               	movlw	0
  5601  0EA8  00B0               	movwf	?___fldiv+2
  5602  0EA9  3000               	movlw	0
  5603  0EAA  00AF               	movwf	?___fldiv+1
  5604  0EAB  3000               	movlw	0
  5605  0EAC  00AE               	movwf	?___fldiv
  5606  0EAD  2FFF               	goto	l751
  5607  0EAE                     l2212:
  5608  0EAE  0846               	movf	___fldiv@bexp,w
  5609  0EAF  00B6               	movwf	??___fldiv
  5610  0EB0  01B7               	clrf	??___fldiv+1
  5611  0EB1  0837               	movf	??___fldiv+1,w
  5612  0EB2  00B9               	movwf	??___fldiv+3
  5613  0EB3  0847               	movf	___fldiv@aexp,w
  5614  0EB4  0236               	subwf	??___fldiv,w
  5615  0EB5  00B8               	movwf	??___fldiv+2
  5616  0EB6  1C03               	skipc
  5617  0EB7  03B9               	decf	??___fldiv+3,f
  5618  0EB8  0838               	movf	??___fldiv+2,w
  5619  0EB9  3E7F               	addlw	127
  5620  0EBA  00C0               	movwf	___fldiv@new_exp
  5621  0EBB  0839               	movf	??___fldiv+3,w
  5622  0EBC  1803               	skipnc
  5623  0EBD  3E01               	addlw	1
  5624  0EBE  3E00               	addlw	0
  5625  0EBF  00C1               	movwf	___fldiv@new_exp+1
  5626  0EC0                     l2214:
  5627  0EC0  0835               	movf	___fldiv@b+3,w
  5628  0EC1  00BE               	movwf	___fldiv@rem+3
  5629  0EC2  0834               	movf	___fldiv@b+2,w
  5630  0EC3  00BD               	movwf	___fldiv@rem+2
  5631  0EC4  0833               	movf	___fldiv@b+1,w
  5632  0EC5  00BC               	movwf	___fldiv@rem+1
  5633  0EC6  0832               	movf	___fldiv@b,w
  5634  0EC7  00BB               	movwf	___fldiv@rem
  5635  0EC8                     l2216:
  5636  0EC8  3000               	movlw	0
  5637  0EC9  00B5               	movwf	___fldiv@b+3
  5638  0ECA  3000               	movlw	0
  5639  0ECB  00B4               	movwf	___fldiv@b+2
  5640  0ECC  3000               	movlw	0
  5641  0ECD  00B3               	movwf	___fldiv@b+1
  5642  0ECE  3000               	movlw	0
  5643  0ECF  00B2               	movwf	___fldiv@b
  5644  0ED0                     l2218:
  5645  0ED0  3000               	movlw	0
  5646  0ED1  00C5               	movwf	___fldiv@grs+3
  5647  0ED2  3000               	movlw	0
  5648  0ED3  00C4               	movwf	___fldiv@grs+2
  5649  0ED4  3000               	movlw	0
  5650  0ED5  00C3               	movwf	___fldiv@grs+1
  5651  0ED6  3000               	movlw	0
  5652  0ED7  00C2               	movwf	___fldiv@grs
  5653  0ED8                     l2220:
  5654  0ED8  01C7               	clrf	___fldiv@aexp
  5655  0ED9  2F24               	goto	l2240
  5656  0EDA                     l2222:
  5657  0EDA  0847               	movf	___fldiv@aexp,w
  5658  0EDB  1903               	btfsc	3,2
  5659  0EDC  2EDE               	goto	u2341
  5660  0EDD  2EDF               	goto	u2340
  5661  0EDE                     u2341:
  5662  0EDE  2EFF               	goto	l2232
  5663  0EDF                     u2340:
  5664  0EDF                     l2224:
  5665  0EDF  3001               	movlw	1
  5666  0EE0  00B6               	movwf	??___fldiv
  5667  0EE1                     u2355:
  5668  0EE1  1003               	clrc
  5669  0EE2  0DBB               	rlf	___fldiv@rem,f
  5670  0EE3  0DBC               	rlf	___fldiv@rem+1,f
  5671  0EE4  0DBD               	rlf	___fldiv@rem+2,f
  5672  0EE5  0DBE               	rlf	___fldiv@rem+3,f
  5673  0EE6  0BB6               	decfsz	??___fldiv,f
  5674  0EE7  2EE1               	goto	u2355
  5675  0EE8  3001               	movlw	1
  5676  0EE9  00B6               	movwf	??___fldiv
  5677  0EEA                     u2365:
  5678  0EEA  1003               	clrc
  5679  0EEB  0DB2               	rlf	___fldiv@b,f
  5680  0EEC  0DB3               	rlf	___fldiv@b+1,f
  5681  0EED  0DB4               	rlf	___fldiv@b+2,f
  5682  0EEE  0DB5               	rlf	___fldiv@b+3,f
  5683  0EEF  0BB6               	decfsz	??___fldiv,f
  5684  0EF0  2EEA               	goto	u2365
  5685  0EF1                     l2226:
  5686  0EF1  1FC5               	btfss	___fldiv@grs+3,7
  5687  0EF2  2EF4               	goto	u2371
  5688  0EF3  2EF5               	goto	u2370
  5689  0EF4                     u2371:
  5690  0EF4  2EF6               	goto	l2230
  5691  0EF5                     u2370:
  5692  0EF5                     l2228:
  5693  0EF5  1432               	bsf	___fldiv@b,0
  5694  0EF6                     l2230:
  5695  0EF6  3001               	movlw	1
  5696  0EF7  00B6               	movwf	??___fldiv
  5697  0EF8                     u2385:
  5698  0EF8  1003               	clrc
  5699  0EF9  0DC2               	rlf	___fldiv@grs,f
  5700  0EFA  0DC3               	rlf	___fldiv@grs+1,f
  5701  0EFB  0DC4               	rlf	___fldiv@grs+2,f
  5702  0EFC  0DC5               	rlf	___fldiv@grs+3,f
  5703  0EFD  0BB6               	decfsz	??___fldiv,f
  5704  0EFE  2EF8               	goto	u2385
  5705  0EFF                     l2232:
  5706  0EFF  0831               	movf	___fldiv@a+3,w
  5707  0F00  023E               	subwf	___fldiv@rem+3,w
  5708  0F01  1D03               	skipz
  5709  0F02  2F0D               	goto	u2395
  5710  0F03  0830               	movf	___fldiv@a+2,w
  5711  0F04  023D               	subwf	___fldiv@rem+2,w
  5712  0F05  1D03               	skipz
  5713  0F06  2F0D               	goto	u2395
  5714  0F07  082F               	movf	___fldiv@a+1,w
  5715  0F08  023C               	subwf	___fldiv@rem+1,w
  5716  0F09  1D03               	skipz
  5717  0F0A  2F0D               	goto	u2395
  5718  0F0B  082E               	movf	___fldiv@a,w
  5719  0F0C  023B               	subwf	___fldiv@rem,w
  5720  0F0D                     u2395:
  5721  0F0D  1C03               	skipc
  5722  0F0E  2F10               	goto	u2391
  5723  0F0F  2F11               	goto	u2390
  5724  0F10                     u2391:
  5725  0F10  2F20               	goto	l2238
  5726  0F11                     u2390:
  5727  0F11                     l2234:
  5728  0F11  1745               	bsf	___fldiv@grs+3,6
  5729  0F12                     l2236:
  5730  0F12  082E               	movf	___fldiv@a,w
  5731  0F13  02BB               	subwf	___fldiv@rem,f
  5732  0F14  082F               	movf	___fldiv@a+1,w
  5733  0F15  1C03               	skipc
  5734  0F16  0F2F               	incfsz	___fldiv@a+1,w
  5735  0F17  02BC               	subwf	___fldiv@rem+1,f
  5736  0F18  0830               	movf	___fldiv@a+2,w
  5737  0F19  1C03               	skipc
  5738  0F1A  0F30               	incfsz	___fldiv@a+2,w
  5739  0F1B  02BD               	subwf	___fldiv@rem+2,f
  5740  0F1C  0831               	movf	___fldiv@a+3,w
  5741  0F1D  1C03               	skipc
  5742  0F1E  0F31               	incfsz	___fldiv@a+3,w
  5743  0F1F  02BE               	subwf	___fldiv@rem+3,f
  5744  0F20                     l2238:
  5745  0F20  3001               	movlw	1
  5746  0F21  00FF               	movwf	btemp+1
  5747  0F22  087F               	movf	btemp+1,w
  5748  0F23  07C7               	addwf	___fldiv@aexp,f
  5749  0F24                     l2240:
  5750  0F24  301A               	movlw	26
  5751  0F25  0247               	subwf	___fldiv@aexp,w
  5752  0F26  1C03               	skipc
  5753  0F27  2F29               	goto	u2401
  5754  0F28  2F2A               	goto	u2400
  5755  0F29                     u2401:
  5756  0F29  2EDA               	goto	l2222
  5757  0F2A                     u2400:
  5758  0F2A                     l2242:
  5759  0F2A  083E               	movf	___fldiv@rem+3,w
  5760  0F2B  043D               	iorwf	___fldiv@rem+2,w
  5761  0F2C  043C               	iorwf	___fldiv@rem+1,w
  5762  0F2D  043B               	iorwf	___fldiv@rem,w
  5763  0F2E  1903               	skipnz
  5764  0F2F  2F31               	goto	u2411
  5765  0F30  2F32               	goto	u2410
  5766  0F31                     u2411:
  5767  0F31  2F51               	goto	l2256
  5768  0F32                     u2410:
  5769  0F32                     l2244:
  5770  0F32  1442               	bsf	___fldiv@grs,0
  5771  0F33  2F51               	goto	l2256
  5772  0F34                     l2246:
  5773  0F34  3001               	movlw	1
  5774  0F35  00B6               	movwf	??___fldiv
  5775  0F36                     u2425:
  5776  0F36  1003               	clrc
  5777  0F37  0DB2               	rlf	___fldiv@b,f
  5778  0F38  0DB3               	rlf	___fldiv@b+1,f
  5779  0F39  0DB4               	rlf	___fldiv@b+2,f
  5780  0F3A  0DB5               	rlf	___fldiv@b+3,f
  5781  0F3B  0BB6               	decfsz	??___fldiv,f
  5782  0F3C  2F36               	goto	u2425
  5783  0F3D                     l2248:
  5784  0F3D  1FC5               	btfss	___fldiv@grs+3,7
  5785  0F3E  2F40               	goto	u2431
  5786  0F3F  2F41               	goto	u2430
  5787  0F40                     u2431:
  5788  0F40  2F42               	goto	l2252
  5789  0F41                     u2430:
  5790  0F41                     l2250:
  5791  0F41  1432               	bsf	___fldiv@b,0
  5792  0F42                     l2252:
  5793  0F42  3001               	movlw	1
  5794  0F43  00B6               	movwf	??___fldiv
  5795  0F44                     u2445:
  5796  0F44  1003               	clrc
  5797  0F45  0DC2               	rlf	___fldiv@grs,f
  5798  0F46  0DC3               	rlf	___fldiv@grs+1,f
  5799  0F47  0DC4               	rlf	___fldiv@grs+2,f
  5800  0F48  0DC5               	rlf	___fldiv@grs+3,f
  5801  0F49  0BB6               	decfsz	??___fldiv,f
  5802  0F4A  2F44               	goto	u2445
  5803  0F4B                     l2254:
  5804  0F4B  30FF               	movlw	255
  5805  0F4C  07C0               	addwf	___fldiv@new_exp,f
  5806  0F4D  1803               	skipnc
  5807  0F4E  0AC1               	incf	___fldiv@new_exp+1,f
  5808  0F4F  30FF               	movlw	255
  5809  0F50  07C1               	addwf	___fldiv@new_exp+1,f
  5810  0F51                     l2256:
  5811  0F51  1FB4               	btfss	___fldiv@b+2,7
  5812  0F52  2F54               	goto	u2451
  5813  0F53  2F55               	goto	u2450
  5814  0F54                     u2451:
  5815  0F54  2F34               	goto	l2246
  5816  0F55                     u2450:
  5817  0F55                     l2258:
  5818  0F55  01C7               	clrf	___fldiv@aexp
  5819  0F56                     l2260:
  5820  0F56  1FC5               	btfss	___fldiv@grs+3,7
  5821  0F57  2F59               	goto	u2461
  5822  0F58  2F5A               	goto	u2460
  5823  0F59                     u2461:
  5824  0F59  2F76               	goto	l2268
  5825  0F5A                     u2460:
  5826  0F5A                     l2262:
  5827  0F5A  30FF               	movlw	255
  5828  0F5B  0542               	andwf	___fldiv@grs,w
  5829  0F5C  00B6               	movwf	??___fldiv
  5830  0F5D  30FF               	movlw	255
  5831  0F5E  0543               	andwf	___fldiv@grs+1,w
  5832  0F5F  00B7               	movwf	??___fldiv+1
  5833  0F60  30FF               	movlw	255
  5834  0F61  0544               	andwf	___fldiv@grs+2,w
  5835  0F62  00B8               	movwf	??___fldiv+2
  5836  0F63  307F               	movlw	127
  5837  0F64  0545               	andwf	___fldiv@grs+3,w
  5838  0F65  00B9               	movwf	??___fldiv+3
  5839  0F66  0839               	movf	??___fldiv+3,w
  5840  0F67  0438               	iorwf	??___fldiv+2,w
  5841  0F68  0437               	iorwf	??___fldiv+1,w
  5842  0F69  0436               	iorwf	??___fldiv,w
  5843  0F6A  1903               	skipnz
  5844  0F6B  2F6D               	goto	u2471
  5845  0F6C  2F6E               	goto	u2470
  5846  0F6D                     u2471:
  5847  0F6D  2F71               	goto	l765
  5848  0F6E                     u2470:
  5849  0F6E                     l2264:
  5850  0F6E  01C7               	clrf	___fldiv@aexp
  5851  0F6F  0AC7               	incf	___fldiv@aexp,f
  5852  0F70  2F76               	goto	l2268
  5853  0F71                     l765:
  5854  0F71  1C32               	btfss	___fldiv@b,0
  5855  0F72  2F74               	goto	u2481
  5856  0F73  2F75               	goto	u2480
  5857  0F74                     u2481:
  5858  0F74  2F76               	goto	l2268
  5859  0F75                     u2480:
  5860  0F75  2F6E               	goto	l2264
  5861  0F76                     l2268:
  5862  0F76  0847               	movf	___fldiv@aexp,w
  5863  0F77  1903               	btfsc	3,2
  5864  0F78  2F7A               	goto	u2491
  5865  0F79  2F7B               	goto	u2490
  5866  0F7A                     u2491:
  5867  0F7A  2FAC               	goto	l2278
  5868  0F7B                     u2490:
  5869  0F7B                     l2270:
  5870  0F7B  3001               	movlw	1
  5871  0F7C  07B2               	addwf	___fldiv@b,f
  5872  0F7D  3000               	movlw	0
  5873  0F7E  1803               	skipnc
  5874  0F7F  3001               	movlw	1
  5875  0F80  07B3               	addwf	___fldiv@b+1,f
  5876  0F81  3000               	movlw	0
  5877  0F82  1803               	skipnc
  5878  0F83  3001               	movlw	1
  5879  0F84  07B4               	addwf	___fldiv@b+2,f
  5880  0F85  3000               	movlw	0
  5881  0F86  1803               	skipnc
  5882  0F87  3001               	movlw	1
  5883  0F88  07B5               	addwf	___fldiv@b+3,f
  5884  0F89                     l2272:
  5885  0F89  1C35               	btfss	___fldiv@b+3,0
  5886  0F8A  2F8C               	goto	u2501
  5887  0F8B  2F8D               	goto	u2500
  5888  0F8C                     u2501:
  5889  0F8C  2FAC               	goto	l2278
  5890  0F8D                     u2500:
  5891  0F8D                     l2274:
  5892  0F8D  0832               	movf	___fldiv@b,w
  5893  0F8E  00B6               	movwf	??___fldiv
  5894  0F8F  0833               	movf	___fldiv@b+1,w
  5895  0F90  00B7               	movwf	??___fldiv+1
  5896  0F91  0834               	movf	___fldiv@b+2,w
  5897  0F92  00B8               	movwf	??___fldiv+2
  5898  0F93  0835               	movf	___fldiv@b+3,w
  5899  0F94  00B9               	movwf	??___fldiv+3
  5900  0F95  3001               	movlw	1
  5901  0F96  00BA               	movwf	??___fldiv+4
  5902  0F97                     u2515:
  5903  0F97  0D39               	rlf	??___fldiv+3,w
  5904  0F98  0CB9               	rrf	??___fldiv+3,f
  5905  0F99  0CB8               	rrf	??___fldiv+2,f
  5906  0F9A  0CB7               	rrf	??___fldiv+1,f
  5907  0F9B  0CB6               	rrf	??___fldiv,f
  5908  0F9C                     u2510:
  5909  0F9C  0BBA               	decfsz	??___fldiv+4,f
  5910  0F9D  2F97               	goto	u2515
  5911  0F9E  0839               	movf	??___fldiv+3,w
  5912  0F9F  00B5               	movwf	___fldiv@b+3
  5913  0FA0  0838               	movf	??___fldiv+2,w
  5914  0FA1  00B4               	movwf	___fldiv@b+2
  5915  0FA2  0837               	movf	??___fldiv+1,w
  5916  0FA3  00B3               	movwf	___fldiv@b+1
  5917  0FA4  0836               	movf	??___fldiv,w
  5918  0FA5  00B2               	movwf	___fldiv@b
  5919  0FA6                     l2276:
  5920  0FA6  3001               	movlw	1
  5921  0FA7  07C0               	addwf	___fldiv@new_exp,f
  5922  0FA8  1803               	skipnc
  5923  0FA9  0AC1               	incf	___fldiv@new_exp+1,f
  5924  0FAA  3000               	movlw	0
  5925  0FAB  07C1               	addwf	___fldiv@new_exp+1,f
  5926  0FAC                     l2278:
  5927  0FAC  0841               	movf	___fldiv@new_exp+1,w
  5928  0FAD  3A80               	xorlw	128
  5929  0FAE  00FF               	movwf	btemp+1
  5930  0FAF  3080               	movlw	128
  5931  0FB0  027F               	subwf	btemp+1,w
  5932  0FB1  1D03               	skipz
  5933  0FB2  2FB5               	goto	u2525
  5934  0FB3  30FF               	movlw	255
  5935  0FB4  0240               	subwf	___fldiv@new_exp,w
  5936  0FB5                     u2525:
  5937  0FB5  1C03               	skipc
  5938  0FB6  2FB8               	goto	u2521
  5939  0FB7  2FB9               	goto	u2520
  5940  0FB8                     u2521:
  5941  0FB8  2FC7               	goto	l2282
  5942  0FB9                     u2520:
  5943  0FB9                     l2280:
  5944  0FB9  30FF               	movlw	255
  5945  0FBA  1283               	bcf	3,5	;RP0=0, select bank0
  5946  0FBB  1303               	bcf	3,6	;RP1=0, select bank0
  5947  0FBC  00C0               	movwf	___fldiv@new_exp
  5948  0FBD  3000               	movlw	0
  5949  0FBE  00C1               	movwf	___fldiv@new_exp+1
  5950  0FBF  3000               	movlw	0
  5951  0FC0  00B5               	movwf	___fldiv@b+3
  5952  0FC1  3000               	movlw	0
  5953  0FC2  00B4               	movwf	___fldiv@b+2
  5954  0FC3  3000               	movlw	0
  5955  0FC4  00B3               	movwf	___fldiv@b+1
  5956  0FC5  3000               	movlw	0
  5957  0FC6  00B2               	movwf	___fldiv@b
  5958  0FC7                     l2282:
  5959  0FC7  1283               	bcf	3,5	;RP0=0, select bank0
  5960  0FC8  1303               	bcf	3,6	;RP1=0, select bank0
  5961  0FC9  0841               	movf	___fldiv@new_exp+1,w
  5962  0FCA  3A80               	xorlw	128
  5963  0FCB  00FF               	movwf	btemp+1
  5964  0FCC  3080               	movlw	128
  5965  0FCD  027F               	subwf	btemp+1,w
  5966  0FCE  1D03               	skipz
  5967  0FCF  2FD2               	goto	u2535
  5968  0FD0  3001               	movlw	1
  5969  0FD1  0240               	subwf	___fldiv@new_exp,w
  5970  0FD2                     u2535:
  5971  0FD2  1803               	skipnc
  5972  0FD3  2FD5               	goto	u2531
  5973  0FD4  2FD6               	goto	u2530
  5974  0FD5                     u2531:
  5975  0FD5  2FE3               	goto	l2290
  5976  0FD6                     u2530:
  5977  0FD6                     l2284:
  5978  0FD6  1283               	bcf	3,5	;RP0=0, select bank0
  5979  0FD7  1303               	bcf	3,6	;RP1=0, select bank0
  5980  0FD8  01C0               	clrf	___fldiv@new_exp
  5981  0FD9  01C1               	clrf	___fldiv@new_exp+1
  5982  0FDA                     l2286:
  5983  0FDA  3000               	movlw	0
  5984  0FDB  00B5               	movwf	___fldiv@b+3
  5985  0FDC  3000               	movlw	0
  5986  0FDD  00B4               	movwf	___fldiv@b+2
  5987  0FDE  3000               	movlw	0
  5988  0FDF  00B3               	movwf	___fldiv@b+1
  5989  0FE0  3000               	movlw	0
  5990  0FE1  00B2               	movwf	___fldiv@b
  5991  0FE2                     l2288:
  5992  0FE2  01BF               	clrf	___fldiv@sign
  5993  0FE3                     l2290:
  5994  0FE3  1283               	bcf	3,5	;RP0=0, select bank0
  5995  0FE4  1303               	bcf	3,6	;RP1=0, select bank0
  5996  0FE5  0840               	movf	___fldiv@new_exp,w
  5997  0FE6  00FF               	movwf	btemp+1
  5998  0FE7  087F               	movf	btemp+1,w
  5999  0FE8  00C6               	movwf	___fldiv@bexp
  6000  0FE9                     l2292:
  6001  0FE9  1C46               	btfss	___fldiv@bexp,0
  6002  0FEA  2FEC               	goto	u2541
  6003  0FEB  2FED               	goto	u2540
  6004  0FEC                     u2541:
  6005  0FEC  2FEF               	goto	l2296
  6006  0FED                     u2540:
  6007  0FED                     l2294:
  6008  0FED  17B4               	bsf	___fldiv@b+2,7
  6009  0FEE  2FF3               	goto	l773
  6010  0FEF                     l2296:
  6011  0FEF  307F               	movlw	127
  6012  0FF0  00FF               	movwf	btemp+1
  6013  0FF1  087F               	movf	btemp+1,w
  6014  0FF2  05B4               	andwf	___fldiv@b+2,f
  6015  0FF3                     l773:
  6016  0FF3  0846               	movf	___fldiv@bexp,w
  6017  0FF4  00B6               	movwf	??___fldiv
  6018  0FF5  1003               	clrc
  6019  0FF6  0C36               	rrf	??___fldiv,w
  6020  0FF7  00FF               	movwf	btemp+1
  6021  0FF8  087F               	movf	btemp+1,w
  6022  0FF9  00B5               	movwf	___fldiv@b+3
  6023  0FFA  083F               	movf	___fldiv@sign,w
  6024  0FFB  00FF               	movwf	btemp+1
  6025  0FFC  087F               	movf	btemp+1,w
  6026  0FFD  04B5               	iorwf	___fldiv@b+3,f
  6027  0FFE  2E97               	goto	l2202
  6028  0FFF                     l751:
  6029  0FFF  0008               	return
  6030  1000                     __end_of___fldiv:
  6031                           
  6032                           	psect	text20
  6033  0B45                     __ptext20:	
  6034 ;; *************** function _EEPROM_Write_Page *****************
  6035 ;; Defined at:
  6036 ;;		line 106 in file "EEPROM_ext.c"
  6037 ;; Parameters:    Size  Location     Type
  6038 ;;  add             2    2[BANK0 ] int 
  6039 ;;  data            1    4[BANK0 ] PTR unsigned char 
  6040 ;;		 -> STR_2(7), 
  6041 ;; Auto vars:     Size  Location     Type
  6042 ;;  i               2    7[BANK0 ] unsigned int 
  6043 ;;  len             2    5[BANK0 ] unsigned int 
  6044 ;; Return value:  Size  Location     Type
  6045 ;;                  1    wreg      void 
  6046 ;; Registers used:
  6047 ;;		wreg, fsr0l, fsr0h, status,2, status,0, btemp+1, pclath, cstack
  6048 ;; Tracked objects:
  6049 ;;		On entry : 0/0
  6050 ;;		On exit  : 0/0
  6051 ;;		Unchanged: 0/0
  6052 ;; Data sizes:     COMMON   BANK0   BANK1   BANK3   BANK2
  6053 ;;      Params:         0       3       0       0       0
  6054 ;;      Locals:         0       4       0       0       0
  6055 ;;      Temps:          0       0       0       0       0
  6056 ;;      Totals:         0       7       0       0       0
  6057 ;;Total ram usage:        7 bytes
  6058 ;; Hardware stack levels used:    1
  6059 ;; Hardware stack levels required when called:    3
  6060 ;; This function calls:
  6061 ;;		_i2c_Restart
  6062 ;;		_i2c_Start
  6063 ;;		_i2c_Stop
  6064 ;;		_i2c_Write
  6065 ;;		_strlen
  6066 ;; This function is called by:
  6067 ;;		_main
  6068 ;; This function uses a non-reentrant model
  6069 ;;
  6070                           
  6071                           
  6072                           ;psect for function _EEPROM_Write_Page
  6073  0B45                     _EEPROM_Write_Page:
  6074  0B45                     l3296:	
  6075                           ;incstack = 0
  6076                           ; Regs used in _EEPROM_Write_Page: [wreg-fsr0h+status,2+status,0+btemp+1+pclath+cstack]
  6077                           
  6078                           
  6079                           ;EEPROM_ext.c: 108:     i2c_Start();
  6080  0B45  120A  158A  2114  120A  158A  	fcall	_i2c_Start
  6081                           
  6082                           ;EEPROM_ext.c: 109:     while (i2c_Write(0xA0))
  6083  0B4A  2B50               	goto	l266
  6084  0B4B                     l3298:
  6085                           
  6086                           ;EEPROM_ext.c: 110:         i2c_Restart();
  6087  0B4B  120A  158A  210B  120A  158A  	fcall	_i2c_Restart
  6088  0B50                     l266:
  6089                           
  6090                           ;EEPROM_ext.c: 109:     while (i2c_Write(0xA0))
  6091  0B50  30A0               	movlw	160
  6092  0B51  120A  158A  2164  120A  158A  	fcall	_i2c_Write
  6093  0B56  3A00               	xorlw	0
  6094  0B57  1D03               	skipz
  6095  0B58  2B5A               	goto	u4471
  6096  0B59  2B5B               	goto	u4470
  6097  0B5A                     u4471:
  6098  0B5A  2B4B               	goto	l3298
  6099  0B5B                     u4470:
  6100  0B5B                     l3300:
  6101                           
  6102                           ;EEPROM_ext.c: 111:     i2c_Write(add >> 8);
  6103  0B5B  1283               	bcf	3,5	;RP0=0, select bank0
  6104  0B5C  1303               	bcf	3,6	;RP1=0, select bank0
  6105  0B5D  0823               	movf	EEPROM_Write_Page@add+1,w
  6106  0B5E  120A  158A  2164  120A  158A  	fcall	_i2c_Write
  6107                           
  6108                           ;EEPROM_ext.c: 112:     i2c_Write((unsigned char) add);
  6109  0B63  1283               	bcf	3,5	;RP0=0, select bank0
  6110  0B64  1303               	bcf	3,6	;RP1=0, select bank0
  6111  0B65  0822               	movf	EEPROM_Write_Page@add,w
  6112  0B66  120A  158A  2164  120A  158A  	fcall	_i2c_Write
  6113  0B6B                     l3302:
  6114                           
  6115                           ;EEPROM_ext.c: 114:     unsigned int len = strlen(data);
  6116  0B6B  1283               	bcf	3,5	;RP0=0, select bank0
  6117  0B6C  1303               	bcf	3,6	;RP1=0, select bank0
  6118  0B6D  0824               	movf	EEPROM_Write_Page@data,w
  6119  0B6E  00F4               	movwf	strlen@s
  6120  0B6F  3000               	movlw	0
  6121  0B70  1D03               	btfss	3,2
  6122  0B71  3080               	movlw	128
  6123  0B72  00F5               	movwf	strlen@s+1
  6124  0B73  120A  158A  21C5  120A  158A  	fcall	_strlen
  6125  0B78  0875               	movf	?_strlen+1,w
  6126  0B79  1283               	bcf	3,5	;RP0=0, select bank0
  6127  0B7A  1303               	bcf	3,6	;RP1=0, select bank0
  6128  0B7B  00A6               	movwf	EEPROM_Write_Page@len+1
  6129  0B7C  0874               	movf	?_strlen,w
  6130  0B7D  00A5               	movwf	EEPROM_Write_Page@len
  6131  0B7E                     l3304:
  6132                           
  6133                           ;EEPROM_ext.c: 115:     for (unsigned int i = 0; i < len; i++)
  6134  0B7E  01A7               	clrf	EEPROM_Write_Page@i
  6135  0B7F  01A8               	clrf	EEPROM_Write_Page@i+1
  6136  0B80  2B96               	goto	l3310
  6137  0B81                     l3306:
  6138                           
  6139                           ;EEPROM_ext.c: 116:         i2c_Write(data[i]);
  6140  0B81  0827               	movf	EEPROM_Write_Page@i,w
  6141  0B82  0724               	addwf	EEPROM_Write_Page@data,w
  6142  0B83  0084               	movwf	4
  6143  0B84  120A  158A  200A  120A  158A  	fcall	stringdir
  6144  0B89  120A  158A  2164  120A  158A  	fcall	_i2c_Write
  6145  0B8E                     l3308:
  6146  0B8E  3001               	movlw	1
  6147  0B8F  1283               	bcf	3,5	;RP0=0, select bank0
  6148  0B90  1303               	bcf	3,6	;RP1=0, select bank0
  6149  0B91  07A7               	addwf	EEPROM_Write_Page@i,f
  6150  0B92  1803               	skipnc
  6151  0B93  0AA8               	incf	EEPROM_Write_Page@i+1,f
  6152  0B94  3000               	movlw	0
  6153  0B95  07A8               	addwf	EEPROM_Write_Page@i+1,f
  6154  0B96                     l3310:
  6155  0B96  0826               	movf	EEPROM_Write_Page@len+1,w
  6156  0B97  0228               	subwf	EEPROM_Write_Page@i+1,w
  6157  0B98  1D03               	skipz
  6158  0B99  2B9C               	goto	u4485
  6159  0B9A  0825               	movf	EEPROM_Write_Page@len,w
  6160  0B9B  0227               	subwf	EEPROM_Write_Page@i,w
  6161  0B9C                     u4485:
  6162  0B9C  1C03               	skipc
  6163  0B9D  2B9F               	goto	u4481
  6164  0B9E  2BA0               	goto	u4480
  6165  0B9F                     u4481:
  6166  0B9F  2B81               	goto	l3306
  6167  0BA0                     u4480:
  6168  0BA0                     l3312:
  6169                           
  6170                           ;EEPROM_ext.c: 118:     i2c_Stop();
  6171  0BA0  120A  158A  211D  120A  158A  	fcall	_i2c_Stop
  6172  0BA5                     l272:
  6173  0BA5  0008               	return
  6174  0BA6                     __end_of_EEPROM_Write_Page:
  6175                           
  6176                           	psect	text21
  6177  09C5                     __ptext21:	
  6178 ;; *************** function _strlen *****************
  6179 ;; Defined at:
  6180 ;;		line 4 in file "C:\Program Files (x86)\Microchip\MPLABX\v2.20\pic\sources\c90\common\strlen.c"
  6181 ;; Parameters:    Size  Location     Type
  6182 ;;  s               2    4[COMMON] PTR const unsigned char 
  6183 ;;		 -> STR_2(7), sendMessage@temp_buf(90), 
  6184 ;; Auto vars:     Size  Location     Type
  6185 ;;  cp              2    0[BANK0 ] PTR const unsigned char 
  6186 ;;		 -> STR_2(7), sendMessage@temp_buf(90), 
  6187 ;; Return value:  Size  Location     Type
  6188 ;;                  2    4[COMMON] unsigned int 
  6189 ;; Registers used:
  6190 ;;		wreg, fsr0l, fsr0h, status,2, status,0, btemp+1, pclath
  6191 ;; Tracked objects:
  6192 ;;		On entry : 0/0
  6193 ;;		On exit  : 0/0
  6194 ;;		Unchanged: 0/0
  6195 ;; Data sizes:     COMMON   BANK0   BANK1   BANK3   BANK2
  6196 ;;      Params:         2       0       0       0       0
  6197 ;;      Locals:         0       2       0       0       0
  6198 ;;      Temps:          0       0       0       0       0
  6199 ;;      Totals:         2       2       0       0       0
  6200 ;;Total ram usage:        4 bytes
  6201 ;; Hardware stack levels used:    2
  6202 ;; Hardware stack levels required when called:    1
  6203 ;; This function calls:
  6204 ;;		Nothing
  6205 ;; This function is called by:
  6206 ;;		_sendMessage
  6207 ;;		_EEPROM_Write_Page
  6208 ;; This function uses a non-reentrant model
  6209 ;;
  6210                           
  6211                           
  6212                           ;psect for function _strlen
  6213  09C5                     _strlen:
  6214  09C5                     l2996:	
  6215                           ;incstack = 0
  6216                           ; Regs used in _strlen: [wreg-fsr0h+status,2+status,0+btemp+1+pclath]
  6217                           
  6218  09C5  0874               	movf	strlen@s,w
  6219  09C6  1283               	bcf	3,5	;RP0=0, select bank0
  6220  09C7  1303               	bcf	3,6	;RP1=0, select bank0
  6221  09C8  00A0               	movwf	strlen@cp
  6222  09C9  0875               	movf	strlen@s+1,w
  6223  09CA  00A1               	movwf	strlen@cp+1
  6224  09CB  29D2               	goto	l3000
  6225  09CC                     l2998:
  6226  09CC  3001               	movlw	1
  6227  09CD  07A0               	addwf	strlen@cp,f
  6228  09CE  1803               	skipnc
  6229  09CF  0AA1               	incf	strlen@cp+1,f
  6230  09D0  3000               	movlw	0
  6231  09D1  07A1               	addwf	strlen@cp+1,f
  6232  09D2                     l3000:
  6233  09D2  0821               	movf	strlen@cp+1,w
  6234  09D3  00FF               	movwf	btemp+1
  6235  09D4  0820               	movf	strlen@cp,w
  6236  09D5  0084               	movwf	4
  6237  09D6  120A  158A  2000  120A  158A  	fcall	stringtab
  6238  09DB  3A00               	xorlw	0
  6239  09DC  1D03               	skipz
  6240  09DD  29DF               	goto	u3701
  6241  09DE  29E0               	goto	u3700
  6242  09DF                     u3701:
  6243  09DF  29CC               	goto	l2998
  6244  09E0                     u3700:
  6245  09E0                     l3002:
  6246  09E0  0874               	movf	strlen@s,w
  6247  09E1  0220               	subwf	strlen@cp,w
  6248  09E2  00F4               	movwf	?_strlen
  6249  09E3  0875               	movf	strlen@s+1,w
  6250  09E4  1C03               	skipc
  6251  09E5  0A75               	incf	strlen@s+1,w
  6252  09E6  0221               	subwf	strlen@cp+1,w
  6253  09E7  00F5               	movwf	?_strlen+1
  6254  09E8                     l854:
  6255  09E8  0008               	return
  6256  09E9                     __end_of_strlen:
  6257                           
  6258                           	psect	text22
  6259  0C0E                     __ptext22:	
  6260 ;; *************** function _EEPROM_Read_Page *****************
  6261 ;; Defined at:
  6262 ;;		line 123 in file "EEPROM_ext.c"
  6263 ;; Parameters:    Size  Location     Type
  6264 ;;  add             2    0[BANK0 ] int 
  6265 ;;  data            1    2[BANK0 ] PTR unsigned char 
  6266 ;;		 -> main@teste(6), 
  6267 ;;  len             2    3[BANK0 ] int 
  6268 ;; Auto vars:     Size  Location     Type
  6269 ;;  i               2    5[BANK0 ] unsigned int 
  6270 ;; Return value:  Size  Location     Type
  6271 ;;                  1    wreg      PTR unsigned char 
  6272 ;; Registers used:
  6273 ;;		wreg, fsr0l, fsr0h, status,2, status,0, btemp+1, pclath, cstack
  6274 ;; Tracked objects:
  6275 ;;		On entry : 0/0
  6276 ;;		On exit  : 0/0
  6277 ;;		Unchanged: 0/0
  6278 ;; Data sizes:     COMMON   BANK0   BANK1   BANK3   BANK2
  6279 ;;      Params:         0       5       0       0       0
  6280 ;;      Locals:         0       2       0       0       0
  6281 ;;      Temps:          1       0       0       0       0
  6282 ;;      Totals:         1       7       0       0       0
  6283 ;;Total ram usage:        8 bytes
  6284 ;; Hardware stack levels used:    1
  6285 ;; Hardware stack levels required when called:    3
  6286 ;; This function calls:
  6287 ;;		_i2c_ACK
  6288 ;;		_i2c_Read
  6289 ;;		_i2c_Restart
  6290 ;;		_i2c_Start
  6291 ;;		_i2c_Stop
  6292 ;;		_i2c_Write
  6293 ;; This function is called by:
  6294 ;;		_main
  6295 ;; This function uses a non-reentrant model
  6296 ;;
  6297                           
  6298                           
  6299                           ;psect for function _EEPROM_Read_Page
  6300  0C0E                     _EEPROM_Read_Page:
  6301  0C0E                     l3314:	
  6302                           ;incstack = 0
  6303                           ; Regs used in _EEPROM_Read_Page: [wreg-fsr0h+status,2+status,0+btemp+1+pclath+cstack]
  6304                           
  6305                           
  6306                           ;EEPROM_ext.c: 126:     i2c_Start();
  6307  0C0E  120A  158A  2114  120A  158A  	fcall	_i2c_Start
  6308                           
  6309                           ;EEPROM_ext.c: 128:     while (i2c_Write(0xA0))
  6310  0C13  2C19               	goto	l275
  6311  0C14                     l3316:
  6312                           
  6313                           ;EEPROM_ext.c: 129:         i2c_Restart();
  6314  0C14  120A  158A  210B  120A  158A  	fcall	_i2c_Restart
  6315  0C19                     l275:
  6316                           
  6317                           ;EEPROM_ext.c: 128:     while (i2c_Write(0xA0))
  6318  0C19  30A0               	movlw	160
  6319  0C1A  120A  158A  2164  120A  158A  	fcall	_i2c_Write
  6320  0C1F  3A00               	xorlw	0
  6321  0C20  1D03               	skipz
  6322  0C21  2C23               	goto	u4491
  6323  0C22  2C24               	goto	u4490
  6324  0C23                     u4491:
  6325  0C23  2C14               	goto	l3316
  6326  0C24                     u4490:
  6327  0C24                     l3318:
  6328                           
  6329                           ;EEPROM_ext.c: 130:     i2c_Write(add >> 8);
  6330  0C24  1283               	bcf	3,5	;RP0=0, select bank0
  6331  0C25  1303               	bcf	3,6	;RP1=0, select bank0
  6332  0C26  0821               	movf	EEPROM_Read_Page@add+1,w
  6333  0C27  120A  158A  2164  120A  158A  	fcall	_i2c_Write
  6334                           
  6335                           ;EEPROM_ext.c: 131:     i2c_Write((unsigned char) add);
  6336  0C2C  1283               	bcf	3,5	;RP0=0, select bank0
  6337  0C2D  1303               	bcf	3,6	;RP1=0, select bank0
  6338  0C2E  0820               	movf	EEPROM_Read_Page@add,w
  6339  0C2F  120A  158A  2164  120A  158A  	fcall	_i2c_Write
  6340                           
  6341                           ;EEPROM_ext.c: 132:     i2c_Restart();
  6342  0C34  120A  158A  210B  120A  158A  	fcall	_i2c_Restart
  6343                           
  6344                           ;EEPROM_ext.c: 133:     i2c_Write(0xA1);
  6345  0C39  30A1               	movlw	161
  6346  0C3A  120A  158A  2164  120A  158A  	fcall	_i2c_Write
  6347  0C3F                     l3320:
  6348                           
  6349                           ;EEPROM_ext.c: 135:     for (unsigned int i = 0; i < len; i++) {
  6350  0C3F  1283               	bcf	3,5	;RP0=0, select bank0
  6351  0C40  1303               	bcf	3,6	;RP1=0, select bank0
  6352  0C41  01A5               	clrf	EEPROM_Read_Page@i
  6353  0C42  01A6               	clrf	EEPROM_Read_Page@i+1
  6354  0C43  2C61               	goto	l3328
  6355  0C44                     l3322:
  6356                           
  6357                           ;EEPROM_ext.c: 136:         data[i] = i2c_Read();
  6358  0C44  120A  158A  218F  120A  158A  	fcall	_i2c_Read
  6359  0C49  00FF               	movwf	btemp+1
  6360  0C4A  1283               	bcf	3,5	;RP0=0, select bank0
  6361  0C4B  1303               	bcf	3,6	;RP1=0, select bank0
  6362  0C4C  0825               	movf	EEPROM_Read_Page@i,w
  6363  0C4D  0722               	addwf	EEPROM_Read_Page@data,w
  6364  0C4E  00F5               	movwf	??_EEPROM_Read_Page
  6365  0C4F  0875               	movf	??_EEPROM_Read_Page,w
  6366  0C50  0084               	movwf	4
  6367  0C51  087F               	movf	btemp+1,w
  6368  0C52  1383               	bcf	3,7	;select IRP bank0
  6369  0C53  0080               	movwf	0
  6370  0C54                     l3324:
  6371                           
  6372                           ;EEPROM_ext.c: 137:         i2c_ACK();
  6373  0C54  120A  158A  212F  120A  158A  	fcall	_i2c_ACK
  6374  0C59                     l3326:
  6375                           
  6376                           ;EEPROM_ext.c: 138:     }
  6377  0C59  3001               	movlw	1
  6378  0C5A  1283               	bcf	3,5	;RP0=0, select bank0
  6379  0C5B  1303               	bcf	3,6	;RP1=0, select bank0
  6380  0C5C  07A5               	addwf	EEPROM_Read_Page@i,f
  6381  0C5D  1803               	skipnc
  6382  0C5E  0AA6               	incf	EEPROM_Read_Page@i+1,f
  6383  0C5F  3000               	movlw	0
  6384  0C60  07A6               	addwf	EEPROM_Read_Page@i+1,f
  6385  0C61                     l3328:
  6386  0C61  0824               	movf	EEPROM_Read_Page@len+1,w
  6387  0C62  0226               	subwf	EEPROM_Read_Page@i+1,w
  6388  0C63  1D03               	skipz
  6389  0C64  2C67               	goto	u4505
  6390  0C65  0823               	movf	EEPROM_Read_Page@len,w
  6391  0C66  0225               	subwf	EEPROM_Read_Page@i,w
  6392  0C67                     u4505:
  6393  0C67  1C03               	skipc
  6394  0C68  2C6A               	goto	u4501
  6395  0C69  2C6B               	goto	u4500
  6396  0C6A                     u4501:
  6397  0C6A  2C44               	goto	l3322
  6398  0C6B                     u4500:
  6399  0C6B                     l3330:
  6400                           
  6401                           ;EEPROM_ext.c: 139:     data[len]='\0';
  6402  0C6B  0823               	movf	EEPROM_Read_Page@len,w
  6403  0C6C  0722               	addwf	EEPROM_Read_Page@data,w
  6404  0C6D  00F5               	movwf	??_EEPROM_Read_Page
  6405  0C6E  0875               	movf	??_EEPROM_Read_Page,w
  6406  0C6F  0084               	movwf	4
  6407  0C70  1383               	bcf	3,7	;select IRP bank0
  6408  0C71  0180               	clrf	0
  6409  0C72                     l3332:
  6410                           
  6411                           ;EEPROM_ext.c: 140:     i2c_Stop();
  6412  0C72  120A  158A  211D  120A  158A  	fcall	_i2c_Stop
  6413  0C77                     l281:
  6414  0C77  0008               	return
  6415  0C78                     __end_of_EEPROM_Read_Page:
  6416                           
  6417                           	psect	text23
  6418  0964                     __ptext23:	
  6419 ;; *************** function _i2c_Write *****************
  6420 ;; Defined at:
  6421 ;;		line 40 in file "EEPROM_ext.c"
  6422 ;; Parameters:    Size  Location     Type
  6423 ;;  data            1    wreg     unsigned char 
  6424 ;; Auto vars:     Size  Location     Type
  6425 ;;  data            1    4[COMMON] unsigned char 
  6426 ;; Return value:  Size  Location     Type
  6427 ;;                  1    wreg      unsigned char 
  6428 ;; Registers used:
  6429 ;;		wreg, status,2, status,0, pclath, cstack
  6430 ;; Tracked objects:
  6431 ;;		On entry : 0/0
  6432 ;;		On exit  : 0/0
  6433 ;;		Unchanged: 0/0
  6434 ;; Data sizes:     COMMON   BANK0   BANK1   BANK3   BANK2
  6435 ;;      Params:         0       0       0       0       0
  6436 ;;      Locals:         1       0       0       0       0
  6437 ;;      Temps:          0       0       0       0       0
  6438 ;;      Totals:         1       0       0       0       0
  6439 ;;Total ram usage:        1 bytes
  6440 ;; Hardware stack levels used:    1
  6441 ;; Hardware stack levels required when called:    2
  6442 ;; This function calls:
  6443 ;;		_i2c_Wait
  6444 ;; This function is called by:
  6445 ;;		_EEPROM_Write_Page
  6446 ;;		_EEPROM_Read_Page
  6447 ;;		_EEPROM_Write
  6448 ;;		_EEPROM_Read
  6449 ;; This function uses a non-reentrant model
  6450 ;;
  6451                           
  6452                           
  6453                           ;psect for function _i2c_Write
  6454  0964                     _i2c_Write:
  6455                           
  6456                           ;incstack = 0
  6457                           ; Regs used in _i2c_Write: [wreg+status,2+status,0+pclath+cstack]
  6458                           ;i2c_Write@data stored from wreg
  6459  0964  00F4               	movwf	i2c_Write@data
  6460  0965                     l2070:
  6461                           
  6462                           ;EEPROM_ext.c: 41:     i2c_Wait();
  6463  0965  120A  158A  2147  120A  158A  	fcall	_i2c_Wait
  6464  096A                     l2072:
  6465                           
  6466                           ;EEPROM_ext.c: 42:     SSPBUF = data;
  6467  096A  0874               	movf	i2c_Write@data,w
  6468  096B  1283               	bcf	3,5	;RP0=0, select bank0
  6469  096C  1303               	bcf	3,6	;RP1=0, select bank0
  6470  096D  0093               	movwf	19	;volatile
  6471  096E                     l236:	
  6472                           ;EEPROM_ext.c: 43:     while (!SSPIF);
  6473                           
  6474  096E  1D8C               	btfss	12,3	;volatile
  6475  096F  2971               	goto	u2071
  6476  0970  2972               	goto	u2070
  6477  0971                     u2071:
  6478  0971  296E               	goto	l236
  6479  0972                     u2070:
  6480  0972                     l238:
  6481                           
  6482                           ;EEPROM_ext.c: 44:     SSPIF=0;
  6483  0972  118C               	bcf	12,3	;volatile
  6484  0973                     l2074:
  6485                           
  6486                           ;EEPROM_ext.c: 45:     return ACKSTAT;
  6487  0973  3000               	movlw	0
  6488  0974  1683               	bsf	3,5	;RP0=1, select bank1
  6489  0975  1303               	bcf	3,6	;RP1=0, select bank1
  6490  0976  1B11               	btfsc	17,6	;volatile
  6491  0977  3001               	movlw	1
  6492  0978                     l239:
  6493  0978  0008               	return
  6494  0979                     __end_of_i2c_Write:
  6495                           
  6496                           	psect	text24
  6497  091D                     __ptext24:	
  6498 ;; *************** function _i2c_Stop *****************
  6499 ;; Defined at:
  6500 ;;		line 35 in file "EEPROM_ext.c"
  6501 ;; Parameters:    Size  Location     Type
  6502 ;;		None
  6503 ;; Auto vars:     Size  Location     Type
  6504 ;;		None
  6505 ;; Return value:  Size  Location     Type
  6506 ;;                  1    wreg      void 
  6507 ;; Registers used:
  6508 ;;		wreg, status,2, status,0, pclath, cstack
  6509 ;; Tracked objects:
  6510 ;;		On entry : 0/0
  6511 ;;		On exit  : 0/0
  6512 ;;		Unchanged: 0/0
  6513 ;; Data sizes:     COMMON   BANK0   BANK1   BANK3   BANK2
  6514 ;;      Params:         0       0       0       0       0
  6515 ;;      Locals:         0       0       0       0       0
  6516 ;;      Temps:          0       0       0       0       0
  6517 ;;      Totals:         0       0       0       0       0
  6518 ;;Total ram usage:        0 bytes
  6519 ;; Hardware stack levels used:    1
  6520 ;; Hardware stack levels required when called:    2
  6521 ;; This function calls:
  6522 ;;		_i2c_Wait
  6523 ;; This function is called by:
  6524 ;;		_EEPROM_Write_Page
  6525 ;;		_EEPROM_Read_Page
  6526 ;;		_EEPROM_Write
  6527 ;;		_EEPROM_Read
  6528 ;; This function uses a non-reentrant model
  6529 ;;
  6530                           
  6531                           
  6532                           ;psect for function _i2c_Stop
  6533  091D                     _i2c_Stop:
  6534  091D                     l2066:	
  6535                           ;incstack = 0
  6536                           ; Regs used in _i2c_Stop: [wreg+status,2+status,0+pclath+cstack]
  6537                           
  6538                           
  6539                           ;EEPROM_ext.c: 36:     i2c_Wait();
  6540  091D  120A  158A  2147  120A  158A  	fcall	_i2c_Wait
  6541  0922                     l2068:
  6542                           
  6543                           ;EEPROM_ext.c: 37:     PEN = 1;
  6544  0922  1683               	bsf	3,5	;RP0=1, select bank1
  6545  0923  1303               	bcf	3,6	;RP1=0, select bank1
  6546  0924  1511               	bsf	17,2	;volatile
  6547  0925                     l233:
  6548  0925  0008               	return
  6549  0926                     __end_of_i2c_Stop:
  6550                           
  6551                           	psect	text25
  6552  0914                     __ptext25:	
  6553 ;; *************** function _i2c_Start *****************
  6554 ;; Defined at:
  6555 ;;		line 25 in file "EEPROM_ext.c"
  6556 ;; Parameters:    Size  Location     Type
  6557 ;;		None
  6558 ;; Auto vars:     Size  Location     Type
  6559 ;;		None
  6560 ;; Return value:  Size  Location     Type
  6561 ;;                  1    wreg      void 
  6562 ;; Registers used:
  6563 ;;		wreg, status,2, status,0, pclath, cstack
  6564 ;; Tracked objects:
  6565 ;;		On entry : 0/0
  6566 ;;		On exit  : 0/0
  6567 ;;		Unchanged: 0/0
  6568 ;; Data sizes:     COMMON   BANK0   BANK1   BANK3   BANK2
  6569 ;;      Params:         0       0       0       0       0
  6570 ;;      Locals:         0       0       0       0       0
  6571 ;;      Temps:          0       0       0       0       0
  6572 ;;      Totals:         0       0       0       0       0
  6573 ;;Total ram usage:        0 bytes
  6574 ;; Hardware stack levels used:    1
  6575 ;; Hardware stack levels required when called:    2
  6576 ;; This function calls:
  6577 ;;		_i2c_Wait
  6578 ;; This function is called by:
  6579 ;;		_EEPROM_Write_Page
  6580 ;;		_EEPROM_Read_Page
  6581 ;;		_EEPROM_Write
  6582 ;;		_EEPROM_Read
  6583 ;; This function uses a non-reentrant model
  6584 ;;
  6585                           
  6586                           
  6587                           ;psect for function _i2c_Start
  6588  0914                     _i2c_Start:
  6589  0914                     l2058:	
  6590                           ;incstack = 0
  6591                           ; Regs used in _i2c_Start: [wreg+status,2+status,0+pclath+cstack]
  6592                           
  6593                           
  6594                           ;EEPROM_ext.c: 26:     i2c_Wait();
  6595  0914  120A  158A  2147  120A  158A  	fcall	_i2c_Wait
  6596  0919                     l2060:
  6597                           
  6598                           ;EEPROM_ext.c: 27:     SEN = 1;
  6599  0919  1683               	bsf	3,5	;RP0=1, select bank1
  6600  091A  1303               	bcf	3,6	;RP1=0, select bank1
  6601  091B  1411               	bsf	17,0	;volatile
  6602  091C                     l227:
  6603  091C  0008               	return
  6604  091D                     __end_of_i2c_Start:
  6605                           
  6606                           	psect	text26
  6607  090B                     __ptext26:	
  6608 ;; *************** function _i2c_Restart *****************
  6609 ;; Defined at:
  6610 ;;		line 30 in file "EEPROM_ext.c"
  6611 ;; Parameters:    Size  Location     Type
  6612 ;;		None
  6613 ;; Auto vars:     Size  Location     Type
  6614 ;;		None
  6615 ;; Return value:  Size  Location     Type
  6616 ;;                  1    wreg      void 
  6617 ;; Registers used:
  6618 ;;		wreg, status,2, status,0, pclath, cstack
  6619 ;; Tracked objects:
  6620 ;;		On entry : 0/0
  6621 ;;		On exit  : 0/0
  6622 ;;		Unchanged: 0/0
  6623 ;; Data sizes:     COMMON   BANK0   BANK1   BANK3   BANK2
  6624 ;;      Params:         0       0       0       0       0
  6625 ;;      Locals:         0       0       0       0       0
  6626 ;;      Temps:          0       0       0       0       0
  6627 ;;      Totals:         0       0       0       0       0
  6628 ;;Total ram usage:        0 bytes
  6629 ;; Hardware stack levels used:    1
  6630 ;; Hardware stack levels required when called:    2
  6631 ;; This function calls:
  6632 ;;		_i2c_Wait
  6633 ;; This function is called by:
  6634 ;;		_EEPROM_Write_Page
  6635 ;;		_EEPROM_Read_Page
  6636 ;;		_EEPROM_Write
  6637 ;;		_EEPROM_Read
  6638 ;; This function uses a non-reentrant model
  6639 ;;
  6640                           
  6641                           
  6642                           ;psect for function _i2c_Restart
  6643  090B                     _i2c_Restart:
  6644  090B                     l2062:	
  6645                           ;incstack = 0
  6646                           ; Regs used in _i2c_Restart: [wreg+status,2+status,0+pclath+cstack]
  6647                           
  6648                           
  6649                           ;EEPROM_ext.c: 31:     i2c_Wait();
  6650  090B  120A  158A  2147  120A  158A  	fcall	_i2c_Wait
  6651  0910                     l2064:
  6652                           
  6653                           ;EEPROM_ext.c: 32:     RSEN = 1;
  6654  0910  1683               	bsf	3,5	;RP0=1, select bank1
  6655  0911  1303               	bcf	3,6	;RP1=0, select bank1
  6656  0912  1491               	bsf	17,1	;volatile
  6657  0913                     l230:
  6658  0913  0008               	return
  6659  0914                     __end_of_i2c_Restart:
  6660                           
  6661                           	psect	text27
  6662  098F                     __ptext27:	
  6663 ;; *************** function _i2c_Read *****************
  6664 ;; Defined at:
  6665 ;;		line 48 in file "EEPROM_ext.c"
  6666 ;; Parameters:    Size  Location     Type
  6667 ;;		None
  6668 ;; Auto vars:     Size  Location     Type
  6669 ;;		None
  6670 ;; Return value:  Size  Location     Type
  6671 ;;                  1    wreg      unsigned char 
  6672 ;; Registers used:
  6673 ;;		wreg, status,2, status,0, pclath, cstack
  6674 ;; Tracked objects:
  6675 ;;		On entry : 0/0
  6676 ;;		On exit  : 0/0
  6677 ;;		Unchanged: 0/0
  6678 ;; Data sizes:     COMMON   BANK0   BANK1   BANK3   BANK2
  6679 ;;      Params:         0       0       0       0       0
  6680 ;;      Locals:         0       0       0       0       0
  6681 ;;      Temps:          0       0       0       0       0
  6682 ;;      Totals:         0       0       0       0       0
  6683 ;;Total ram usage:        0 bytes
  6684 ;; Hardware stack levels used:    1
  6685 ;; Hardware stack levels required when called:    2
  6686 ;; This function calls:
  6687 ;;		_i2c_Wait
  6688 ;; This function is called by:
  6689 ;;		_EEPROM_Read_Page
  6690 ;;		_EEPROM_Read
  6691 ;; This function uses a non-reentrant model
  6692 ;;
  6693                           
  6694                           
  6695                           ;psect for function _i2c_Read
  6696  098F                     _i2c_Read:
  6697  098F                     l2078:	
  6698                           ;incstack = 0
  6699                           ; Regs used in _i2c_Read: [wreg+status,2+status,0+pclath+cstack]
  6700                           
  6701                           
  6702                           ;EEPROM_ext.c: 50:     i2c_Wait();
  6703  098F  120A  158A  2147  120A  158A  	fcall	_i2c_Wait
  6704  0994                     l2080:
  6705                           
  6706                           ;EEPROM_ext.c: 51:     RCEN = 1;
  6707  0994  1683               	bsf	3,5	;RP0=1, select bank1
  6708  0995  1303               	bcf	3,6	;RP1=0, select bank1
  6709  0996  1591               	bsf	17,3	;volatile
  6710  0997                     l242:	
  6711                           ;EEPROM_ext.c: 52:     while (!SSPIF);
  6712                           
  6713  0997  1283               	bcf	3,5	;RP0=0, select bank0
  6714  0998  1D8C               	btfss	12,3	;volatile
  6715  0999  299B               	goto	u2081
  6716  099A  299C               	goto	u2080
  6717  099B                     u2081:
  6718  099B  2997               	goto	l242
  6719  099C                     u2080:
  6720  099C                     l244:
  6721                           
  6722                           ;EEPROM_ext.c: 53:     SSPIF = 0;
  6723  099C  118C               	bcf	12,3	;volatile
  6724  099D                     l2082:
  6725                           
  6726                           ;EEPROM_ext.c: 54:     i2c_Wait();
  6727  099D  120A  158A  2147  120A  158A  	fcall	_i2c_Wait
  6728  09A2                     l2084:
  6729                           
  6730                           ;EEPROM_ext.c: 55:     return SSPBUF;
  6731  09A2  1283               	bcf	3,5	;RP0=0, select bank0
  6732  09A3  1303               	bcf	3,6	;RP1=0, select bank0
  6733  09A4  0813               	movf	19,w	;volatile
  6734  09A5                     l245:
  6735  09A5  0008               	return
  6736  09A6                     __end_of_i2c_Read:
  6737                           
  6738                           	psect	text28
  6739  092F                     __ptext28:	
  6740 ;; *************** function _i2c_ACK *****************
  6741 ;; Defined at:
  6742 ;;		line 58 in file "EEPROM_ext.c"
  6743 ;; Parameters:    Size  Location     Type
  6744 ;;		None
  6745 ;; Auto vars:     Size  Location     Type
  6746 ;;		None
  6747 ;; Return value:  Size  Location     Type
  6748 ;;                  1    wreg      void 
  6749 ;; Registers used:
  6750 ;;		wreg, status,2, status,0, pclath, cstack
  6751 ;; Tracked objects:
  6752 ;;		On entry : 0/0
  6753 ;;		On exit  : 0/0
  6754 ;;		Unchanged: 0/0
  6755 ;; Data sizes:     COMMON   BANK0   BANK1   BANK3   BANK2
  6756 ;;      Params:         0       0       0       0       0
  6757 ;;      Locals:         0       0       0       0       0
  6758 ;;      Temps:          0       0       0       0       0
  6759 ;;      Totals:         0       0       0       0       0
  6760 ;;Total ram usage:        0 bytes
  6761 ;; Hardware stack levels used:    1
  6762 ;; Hardware stack levels required when called:    2
  6763 ;; This function calls:
  6764 ;;		_i2c_Wait
  6765 ;; This function is called by:
  6766 ;;		_EEPROM_Read_Page
  6767 ;; This function uses a non-reentrant model
  6768 ;;
  6769                           
  6770                           
  6771                           ;psect for function _i2c_ACK
  6772  092F                     _i2c_ACK:
  6773  092F                     l2088:	
  6774                           ;incstack = 0
  6775                           ; Regs used in _i2c_ACK: [wreg+status,2+status,0+pclath+cstack]
  6776                           
  6777                           
  6778                           ;EEPROM_ext.c: 59:     ACKDT = 0;
  6779  092F  1683               	bsf	3,5	;RP0=1, select bank1
  6780  0930  1303               	bcf	3,6	;RP1=0, select bank1
  6781  0931  1291               	bcf	17,5	;volatile
  6782  0932                     l2090:
  6783                           
  6784                           ;EEPROM_ext.c: 60:     i2c_Wait();
  6785  0932  120A  158A  2147  120A  158A  	fcall	_i2c_Wait
  6786  0937                     l2092:
  6787                           
  6788                           ;EEPROM_ext.c: 61:     ACKEN = 1;
  6789  0937  1683               	bsf	3,5	;RP0=1, select bank1
  6790  0938  1303               	bcf	3,6	;RP1=0, select bank1
  6791  0939  1611               	bsf	17,4	;volatile
  6792  093A                     l248:
  6793  093A  0008               	return
  6794  093B                     __end_of_i2c_ACK:
  6795                           
  6796                           	psect	text29
  6797  0947                     __ptext29:	
  6798 ;; *************** function _i2c_Wait *****************
  6799 ;; Defined at:
  6800 ;;		line 21 in file "EEPROM_ext.c"
  6801 ;; Parameters:    Size  Location     Type
  6802 ;;		None
  6803 ;; Auto vars:     Size  Location     Type
  6804 ;;		None
  6805 ;; Return value:  Size  Location     Type
  6806 ;;                  1    wreg      void 
  6807 ;; Registers used:
  6808 ;;		wreg, status,2
  6809 ;; Tracked objects:
  6810 ;;		On entry : 0/0
  6811 ;;		On exit  : 0/0
  6812 ;;		Unchanged: 0/0
  6813 ;; Data sizes:     COMMON   BANK0   BANK1   BANK3   BANK2
  6814 ;;      Params:         0       0       0       0       0
  6815 ;;      Locals:         0       0       0       0       0
  6816 ;;      Temps:          0       0       0       0       0
  6817 ;;      Totals:         0       0       0       0       0
  6818 ;;Total ram usage:        0 bytes
  6819 ;; Hardware stack levels used:    1
  6820 ;; Hardware stack levels required when called:    1
  6821 ;; This function calls:
  6822 ;;		Nothing
  6823 ;; This function is called by:
  6824 ;;		_i2c_Start
  6825 ;;		_i2c_Restart
  6826 ;;		_i2c_Stop
  6827 ;;		_i2c_Write
  6828 ;;		_i2c_Read
  6829 ;;		_i2c_ACK
  6830 ;;		_i2c_NACK
  6831 ;; This function uses a non-reentrant model
  6832 ;;
  6833                           
  6834                           
  6835                           ;psect for function _i2c_Wait
  6836  0947                     _i2c_Wait:
  6837  0947                     l1894:	
  6838                           ;incstack = 0
  6839                           ; Regs used in _i2c_Wait: [wreg+status,2]
  6840                           
  6841  0947                     l221:	
  6842                           ;EEPROM_ext.c: 22:     while ((SSPSTAT & 0x04) || (SSPCON2 & 0x1F));
  6843                           
  6844  0947  1683               	bsf	3,5	;RP0=1, select bank1
  6845  0948  1303               	bcf	3,6	;RP1=0, select bank1
  6846  0949  1914               	btfsc	20,2	;volatile
  6847  094A  294C               	goto	u1761
  6848  094B  294D               	goto	u1760
  6849  094C                     u1761:
  6850  094C  2947               	goto	l221
  6851  094D                     u1760:
  6852  094D                     l1896:
  6853  094D  0811               	movf	17,w	;volatile
  6854  094E  391F               	andlw	31
  6855  094F  1D03               	btfss	3,2
  6856  0950  2952               	goto	u1771
  6857  0951  2953               	goto	u1770
  6858  0952                     u1771:
  6859  0952  2947               	goto	l221
  6860  0953                     u1770:
  6861  0953                     l224:
  6862  0953  0008               	return
  6863  0954                     __end_of_i2c_Wait:
  6864                           
  6865                           	psect	text30
  6866  0C78                     __ptext30:	
  6867 ;; *************** function _timer *****************
  6868 ;; Defined at:
  6869 ;;		line 91 in file "main.c"
  6870 ;; Parameters:    Size  Location     Type
  6871 ;;		None
  6872 ;; Auto vars:     Size  Location     Type
  6873 ;;  countTimer1     2    2[COMMON] int 
  6874 ;; Return value:  Size  Location     Type
  6875 ;;                  1    wreg      void 
  6876 ;; Registers used:
  6877 ;;		wreg, status,2, status,0
  6878 ;; Tracked objects:
  6879 ;;		On entry : 0/0
  6880 ;;		On exit  : 0/0
  6881 ;;		Unchanged: 0/0
  6882 ;; Data sizes:     COMMON   BANK0   BANK1   BANK3   BANK2
  6883 ;;      Params:         0       0       0       0       0
  6884 ;;      Locals:         2       0       0       0       0
  6885 ;;      Temps:          2       0       0       0       0
  6886 ;;      Totals:         4       0       0       0       0
  6887 ;;Total ram usage:        4 bytes
  6888 ;; Hardware stack levels used:    1
  6889 ;; This function calls:
  6890 ;;		Nothing
  6891 ;; This function is called by:
  6892 ;;		Interrupt level 1
  6893 ;; This function uses a non-reentrant model
  6894 ;;
  6895                           
  6896                           
  6897                           ;psect for function _timer
  6898  0C78                     _timer:
  6899  0C78                     i1l2592:
  6900                           
  6901                           ;main.c: 93:     if (TMR0IF) {
  6902  0C78  1D0B               	btfss	11,2	;volatile
  6903  0C79  2C7B               	goto	u318_21
  6904  0C7A  2C7C               	goto	u318_20
  6905  0C7B                     u318_21:
  6906  0C7B  2CC7               	goto	i1l2618
  6907  0C7C                     u318_20:
  6908  0C7C                     i1l2594:
  6909                           
  6910                           ;main.c: 94:         TMR0IF = 0;
  6911  0C7C  110B               	bcf	11,2	;volatile
  6912  0C7D                     i1l2596:
  6913                           
  6914                           ;main.c: 95:         count++;
  6915  0C7D  3001               	movlw	1
  6916  0C7E  1683               	bsf	3,5	;RP0=1, select bank1
  6917  0C7F  1303               	bcf	3,6	;RP1=0, select bank1
  6918  0C80  07B6               	addwf	_count^(0+128),f
  6919  0C81  3000               	movlw	0
  6920  0C82  1803               	skipnc
  6921  0C83  3001               	movlw	1
  6922  0C84  07B7               	addwf	(_count+1)^(0+128),f
  6923  0C85  3000               	movlw	0
  6924  0C86  1803               	skipnc
  6925  0C87  3001               	movlw	1
  6926  0C88  07B8               	addwf	(_count+2)^(0+128),f
  6927  0C89  3000               	movlw	0
  6928  0C8A  1803               	skipnc
  6929  0C8B  3001               	movlw	1
  6930  0C8C  07B9               	addwf	(_count+3)^(0+128),f
  6931  0C8D                     i1l2598:
  6932                           
  6933                           ;main.c: 96:         if (count == 60000) {
  6934  0C8D  3060               	movlw	96
  6935  0C8E  0636               	xorwf	_count^(0+128),w
  6936  0C8F  30EA               	movlw	234
  6937  0C90  1903               	skipnz
  6938  0C91  0637               	xorwf	(_count+1)^(0+128),w
  6939  0C92  0438               	iorwf	(_count+2)^(0+128),w
  6940  0C93  0439               	iorwf	(_count+3)^(0+128),w
  6941  0C94  1D03               	btfss	3,2
  6942  0C95  2C97               	goto	u319_21
  6943  0C96  2C98               	goto	u319_20
  6944  0C97                     u319_21:
  6945  0C97  2CA5               	goto	i1l2602
  6946  0C98                     u319_20:
  6947  0C98                     i1l2600:
  6948                           
  6949                           ;main.c: 97:             count = 0;
  6950  0C98  3000               	movlw	0
  6951  0C99  00B9               	movwf	(_count+3)^(0+128)
  6952  0C9A  3000               	movlw	0
  6953  0C9B  00B8               	movwf	(_count+2)^(0+128)
  6954  0C9C  3000               	movlw	0
  6955  0C9D  00B7               	movwf	(_count+1)^(0+128)
  6956  0C9E  3000               	movlw	0
  6957  0C9F  00B6               	movwf	_count^(0+128)
  6958                           
  6959                           ;main.c: 98:             send = 1;
  6960  0CA0  3001               	movlw	1
  6961  0CA1  00BE               	movwf	_send^(0+128)
  6962  0CA2  3000               	movlw	0
  6963  0CA3  00BF               	movwf	(_send^(0+128)+1)
  6964                           
  6965                           ;main.c: 99:         } else {
  6966  0CA4  2CC7               	goto	i1l2618
  6967  0CA5                     i1l2602:
  6968                           
  6969                           ;main.c: 100:             if (s == 1000) {
  6970  0CA5  30E8               	movlw	232
  6971  0CA6  063C               	xorwf	_s^(0+128),w
  6972  0CA7  3003               	movlw	3
  6973  0CA8  1903               	skipnz
  6974  0CA9  063D               	xorwf	(_s+1)^(0+128),w
  6975  0CAA  1D03               	btfss	3,2
  6976  0CAB  2CAD               	goto	u320_21
  6977  0CAC  2CAE               	goto	u320_20
  6978  0CAD                     u320_21:
  6979  0CAD  2CC1               	goto	i1l2616
  6980  0CAE                     u320_20:
  6981  0CAE                     i1l2604:
  6982                           
  6983                           ;main.c: 101:                 s = 0;
  6984  0CAE  01BC               	clrf	_s^(0+128)
  6985  0CAF  01BD               	clrf	(_s+1)^(0+128)
  6986  0CB0                     i1l2606:
  6987                           
  6988                           ;main.c: 102:                 old_Veloc = veloc;
  6989  0CB0  0879               	movf	_veloc+1,w
  6990  0CB1  00C5               	movwf	(_old_Veloc+1)^(0+128)
  6991  0CB2  0878               	movf	_veloc,w
  6992  0CB3  00C4               	movwf	_old_Veloc^(0+128)
  6993  0CB4                     i1l2608:
  6994                           
  6995                           ;main.c: 103:                 int countTimer1 = (TMR1H << 8) + TMR1L;
  6996  0CB4  1283               	bcf	3,5	;RP0=0, select bank0
  6997  0CB5  1303               	bcf	3,6	;RP1=0, select bank0
  6998  0CB6  080F               	movf	15,w	;volatile
  6999  0CB7  00F3               	movwf	timer@countTimer1+1
  7000  0CB8  080E               	movf	14,w	;volatile
  7001  0CB9  00F2               	movwf	timer@countTimer1
  7002  0CBA                     i1l2610:
  7003                           
  7004                           ;main.c: 104:                 veloc = countTimer1;
  7005  0CBA  0873               	movf	timer@countTimer1+1,w
  7006  0CBB  00F9               	movwf	_veloc+1
  7007  0CBC  0872               	movf	timer@countTimer1,w
  7008  0CBD  00F8               	movwf	_veloc
  7009  0CBE                     i1l2612:
  7010                           
  7011                           ;main.c: 106:                 TMR1H = 0b00000000;
  7012  0CBE  018F               	clrf	15	;volatile
  7013  0CBF                     i1l2614:
  7014                           
  7015                           ;main.c: 107:                 TMR1L = 0b00000000;
  7016  0CBF  018E               	clrf	14	;volatile
  7017                           
  7018                           ;main.c: 108:             } else s++;
  7019  0CC0  2CC7               	goto	i1l2618
  7020  0CC1                     i1l2616:
  7021  0CC1  3001               	movlw	1
  7022  0CC2  07BC               	addwf	_s^(0+128),f
  7023  0CC3  1803               	skipnc
  7024  0CC4  0ABD               	incf	(_s+1)^(0+128),f
  7025  0CC5  3000               	movlw	0
  7026  0CC6  07BD               	addwf	(_s+1)^(0+128),f
  7027  0CC7                     i1l2618:
  7028                           
  7029                           ;main.c: 113:     if (RCIF) {
  7030  0CC7  1283               	bcf	3,5	;RP0=0, select bank0
  7031  0CC8  1303               	bcf	3,6	;RP1=0, select bank0
  7032  0CC9  1E8C               	btfss	12,5	;volatile
  7033  0CCA  2CCC               	goto	u321_21
  7034  0CCB  2CCD               	goto	u321_20
  7035  0CCC                     u321_21:
  7036  0CCC  2CD3               	goto	i1l2622
  7037  0CCD                     u321_20:
  7038  0CCD                     i1l2620:
  7039                           
  7040                           ;main.c: 114:         received = 1;
  7041  0CCD  3001               	movlw	1
  7042  0CCE  1683               	bsf	3,5	;RP0=1, select bank1
  7043  0CCF  1303               	bcf	3,6	;RP1=0, select bank1
  7044  0CD0  00BA               	movwf	_received^(0+128)
  7045  0CD1  3000               	movlw	0
  7046  0CD2  00BB               	movwf	(_received^(0+128)+1)
  7047  0CD3                     i1l2622:
  7048                           
  7049                           ;main.c: 117:     if (INTF) {
  7050  0CD3  1C8B               	btfss	11,1	;volatile
  7051  0CD4  2CD6               	goto	u322_21
  7052  0CD5  2CD7               	goto	u322_20
  7053  0CD6                     u322_21:
  7054  0CD6  2CE5               	goto	i1l137
  7055  0CD7                     u322_20:
  7056  0CD7                     i1l2624:
  7057                           
  7058                           ;main.c: 118:         INTF = 0;
  7059  0CD7  108B               	bcf	11,1	;volatile
  7060  0CD8                     i1l2626:
  7061                           
  7062                           ;main.c: 120:         if (start)
  7063  0CD8  0876               	movf	_start,w
  7064  0CD9  0477               	iorwf	_start+1,w
  7065  0CDA  1903               	btfsc	3,2
  7066  0CDB  2CDD               	goto	u323_21
  7067  0CDC  2CDE               	goto	u323_20
  7068  0CDD                     u323_21:
  7069  0CDD  2CE1               	goto	i1l2630
  7070  0CDE                     u323_20:
  7071  0CDE                     i1l2628:
  7072                           
  7073                           ;main.c: 121:             start = 0;
  7074  0CDE  01F6               	clrf	_start
  7075  0CDF  01F7               	clrf	_start+1
  7076  0CE0  2CE5               	goto	i1l137
  7077  0CE1                     i1l2630:
  7078                           
  7079                           ;main.c: 123:             start = 1;
  7080  0CE1  3001               	movlw	1
  7081  0CE2  00F6               	movwf	_start
  7082  0CE3  3000               	movlw	0
  7083  0CE4  00F7               	movwf	_start+1
  7084  0CE5                     i1l137:
  7085  0CE5  0871               	movf	??_timer+1,w
  7086  0CE6  008A               	movwf	10
  7087  0CE7  0E70               	swapf	??_timer^(0+4294967168),w
  7088  0CE8  0083               	movwf	3
  7089  0CE9  0EFE               	swapf	btemp,f
  7090  0CEA  0E7E               	swapf	btemp,w
  7091  0CEB  0009               	retfie
  7092  0CEC                     __end_of_timer:
  7093  007E                     btemp	set	126	;btemp
  7094  007E                     wtemp0	set	126
  7095                           
  7096                           	psect	intentry
  7097  0004                     __pintentry:	
  7098                           ;incstack = 0
  7099                           ; Regs used in _timer: [wreg+status,2+status,0]
  7100                           
  7101  0004                     interrupt_function:
  7102  007E                     saved_w	set	btemp
  7103  0004  00FE               	movwf	btemp
  7104  0005  0E03               	swapf	3,w
  7105  0006  00F0               	movwf	??_timer
  7106  0007  080A               	movf	10,w
  7107  0008  00F1               	movwf	??_timer+1
  7108  0009  120A  158A  2C78   	ljmp	_timer
  7109                           
  7110                           	psect	config
  7111                           
  7112                           ;Config register CONFIG @ 0x2007
  7113                           ;	Oscillator Selection bits
  7114                           ;	FOSC = HS, HS oscillator
  7115                           ;	Watchdog Timer Enable bit
  7116                           ;	WDTE = OFF, WDT disabled
  7117                           ;	Power-up Timer Enable bit
  7118                           ;	PWRTE = OFF, PWRT disabled
  7119                           ;	Brown-out Reset Enable bit
  7120                           ;	BOREN = OFF, BOR disabled
  7121                           ;	Low-Voltage (Single-Supply) In-Circuit Serial Programming Enable bit
  7122                           ;	LVP = OFF, RB3 is digital I/O, HV on MCLR must be used for programming
  7123                           ;	Data EEPROM Memory Code Protection bit
  7124                           ;	CPD = OFF, Data EEPROM code protection off
  7125                           ;	Flash Program Memory Write Enable bits
  7126                           ;	WRT = OFF, Write protection off; all program memory may be written to by EECON control
  7127                           ;	In-Circuit Debugger Mode bit
  7128                           ;	DEBUG = 0x1, unprogrammed default
  7129                           ;	Flash Program Memory Code Protection bit
  7130                           ;	CP = OFF, Code protection off
  7131  2007                     	org	8199
  7132  2007  3F3A               	dw	16186

Data Sizes:
    Strings     77
    Constant    10
    Data        8
    BSS         12
    Persistent  0
    Stack       0

Auto Spaces:
    Space          Size  Autos    Used
    COMMON           14      6      10
    BANK0            80     80      80
    BANK1            80     22      38
    BANK3            96     90      90
    BANK2            96      0       0

Pointer List with Targets:

    strlen@s	PTR const unsigned char  size(2) Largest target is 90
		 -> STR_2(CODE[7]), sendMessage@temp_buf(BANK3[90]), 

    strlen@cp	PTR const unsigned char  size(2) Largest target is 90
		 -> STR_2(CODE[7]), sendMessage@temp_buf(BANK3[90]), 

    sprintf@f	PTR const unsigned char  size(1) Largest target is 50
		 -> STR_1(CODE[50]), 

    sprintf@cp	PTR const unsigned char  size(2) Largest target is 7
		 -> STR_7(CODE[7]), ?_sprintf(BANK0[2]), STR_6(CODE[4]), STR_5(CODE[4]), 
		 -> STR_4(CODE[2]), STR_3(CODE[3]), 

    sprintf@sp	PTR unsigned char  size(1) Largest target is 90
		 -> sendMessage@temp_buf(BANK3[90]), 

    sprintf@ap	PTR void [1] size(1) Largest target is 2
		 -> ?_sprintf(BANK0[2]), 

    EEPROM_Read_Page@data	PTR unsigned char  size(1) Largest target is 6
		 -> main@teste(BANK1[6]), 

    EEPROM_Write_Page@data	PTR unsigned char  size(1) Largest target is 7
		 -> STR_2(CODE[7]), 

    sp__EEPROM_Read_Page	PTR unsigned char  size(1) Largest target is 6
		 -> main@teste(BANK1[6]), 

    sendMessage@situation	PTR unsigned char  size(1) Largest target is 4
		 -> STR_6(CODE[4]), STR_5(CODE[4]), STR_4(CODE[2]), STR_3(CODE[3]), 

    uartSendString@str	PTR unsigned char  size(2) Largest target is 90
		 -> main@teste(BANK1[6]), sendMessage@temp_buf(BANK3[90]), 


Critical Paths under _main in COMMON

    _main->_EEPROM_Read_Page
    _main->_valuefromSensor
    _sendMessage->_strlen
    _uartSendString->_uartSendChar
    _sprintf->___lwmod
    _i2cSetup->___lldiv
    _PWMDuty->_valuefromSensor
    ___flmul->__Umul8_16
    _EEPROM_Write_Page->_strlen
    _EEPROM_Read_Page->_i2c_Write

Critical Paths under _timer in COMMON

    None.

Critical Paths under _main in BANK0

    _main->_PWMDuty
    _sendMessage->_sprintf
    _sprintf->___lwmod
    ___lwmod->___lwdiv
    _i2cSetup->___lldiv
    _PWMDuty->___fltol
    ___fltol->___flmul
    ___flmul->___fldiv
    ___fldiv->___xxtofl
    _EEPROM_Write_Page->_strlen

Critical Paths under _timer in BANK0

    None.

Critical Paths under _main in BANK1

    None.

Critical Paths under _timer in BANK1

    None.

Critical Paths under _main in BANK3

    _main->_sendMessage

Critical Paths under _timer in BANK3

    None.

Critical Paths under _main in BANK2

    None.

Critical Paths under _timer in BANK2

    None.

Call Graph Tables:

 ---------------------------------------------------------------------------------
 (Depth) Function   	        Calls       Base Space   Used Autos Params    Refs
 ---------------------------------------------------------------------------------
 (0) _main                                                22    22      0   13239
                                              0 BANK1     22    22      0
                   _EEPROM_Read_Page
                  _EEPROM_Write_Page
                            _PWMDuty
                           _PWMSetup
                           _adcSetup
                             _buzzer
                           _i2cSetup
                        _sendMessage
                     _uartSendString
                         _usartSetup
                    _valuefromSensor
 ---------------------------------------------------------------------------------
 (1) _valuefromSensor                                      3     1      2     301
                                              4 COMMON     2     0      2
                                              0 BANK0      1     1      0
 ---------------------------------------------------------------------------------
 (1) _usartSetup                                           0     0      0       0
 ---------------------------------------------------------------------------------
 (1) _sendMessage                                         97    90      7    4099
                                             32 BANK0      7     0      7
                                              0 BANK3     90    90      0
                            _sprintf
                             _strlen
                     _uartSendString
 ---------------------------------------------------------------------------------
 (1) _uartSendString                                       7     5      2     332
                                              0 BANK0      7     5      2
                       _uartSendChar
 ---------------------------------------------------------------------------------
 (2) _uartSendChar                                         1     1      0      22
                                              4 COMMON     1     1      0
 ---------------------------------------------------------------------------------
 (2) _sprintf                                             27    18      9    1724
                                             11 BANK0     21    12      9
                            ___lwdiv
                            ___lwmod
 ---------------------------------------------------------------------------------
 (3) ___lwmod                                              5     1      4     311
                                              4 COMMON     1     1      0
                                              7 BANK0      4     0      4
                            ___lwdiv (ARG)
 ---------------------------------------------------------------------------------
 (3) ___lwdiv                                              7     3      4     421
                                              0 BANK0      7     3      4
 ---------------------------------------------------------------------------------
 (1) _i2cSetup                                             8     4      4     542
                                             13 BANK0      8     4      4
                            ___lldiv
 ---------------------------------------------------------------------------------
 (2) ___lldiv                                             14     6      8     421
                                              4 COMMON     1     1      0
                                              0 BANK0     13     5      8
 ---------------------------------------------------------------------------------
 (1) _buzzer                                               3     3      0       0
                                              0 BANK0      3     3      0
 ---------------------------------------------------------------------------------
 (1) _adcSetup                                             0     0      0       0
 ---------------------------------------------------------------------------------
 (1) _PWMSetup                                             0     0      0       0
 ---------------------------------------------------------------------------------
 (1) _PWMDuty                                              4     2      2    5867
                                             76 BANK0      4     2      2
                            ___fldiv
                            ___flmul
                            ___fltol
                           ___xxtofl
                    _valuefromSensor (ARG)
 ---------------------------------------------------------------------------------
 (2) ___xxtofl                                            14    10      4     566
                                              0 BANK0     14    10      4
 ---------------------------------------------------------------------------------
 (2) ___fltol                                             10     6      4     427
                                             66 BANK0     10     6      4
                            ___fldiv (ARG)
                            ___flmul (ARG)
                           ___xxtofl (ARG)
 ---------------------------------------------------------------------------------
 (2) ___flmul                                             26    18      8    3353
                                             40 BANK0     26    18      8
                          __Umul8_16
                            ___fldiv (ARG)
                           ___xxtofl (ARG)
 ---------------------------------------------------------------------------------
 (3) __Umul8_16                                            9     7      2     980
                                              4 COMMON     2     0      2
                                              0 BANK0      7     7      0
 ---------------------------------------------------------------------------------
 (2) ___fldiv                                             26    18      8    1273
                                             14 BANK0     26    18      8
                           ___xxtofl (ARG)
 ---------------------------------------------------------------------------------
 (1) _EEPROM_Write_Page                                    7     4      3     738
                                              2 BANK0      7     4      3
                        _i2c_Restart
                          _i2c_Start
                           _i2c_Stop
                          _i2c_Write
                             _strlen
 ---------------------------------------------------------------------------------
 (3) _strlen                                               4     2      2     310
                                              4 COMMON     2     0      2
                                              0 BANK0      2     2      0
 ---------------------------------------------------------------------------------
 (1) _EEPROM_Read_Page                                     8     3      5     553
                                              5 COMMON     1     1      0
                                              0 BANK0      7     2      5
                            _i2c_ACK
                           _i2c_Read
                        _i2c_Restart
                          _i2c_Start
                           _i2c_Stop
                          _i2c_Write
 ---------------------------------------------------------------------------------
 (2) _i2c_Write                                            1     1      0      22
                                              4 COMMON     1     1      0
                           _i2c_Wait
 ---------------------------------------------------------------------------------
 (2) _i2c_Stop                                             0     0      0       0
                           _i2c_Wait
 ---------------------------------------------------------------------------------
 (2) _i2c_Start                                            0     0      0       0
                           _i2c_Wait
 ---------------------------------------------------------------------------------
 (2) _i2c_Restart                                          0     0      0       0
                           _i2c_Wait
 ---------------------------------------------------------------------------------
 (2) _i2c_Read                                             0     0      0       0
                           _i2c_Wait
 ---------------------------------------------------------------------------------
 (2) _i2c_ACK                                              0     0      0       0
                           _i2c_Wait
 ---------------------------------------------------------------------------------
 (3) _i2c_Wait                                             0     0      0       0
 ---------------------------------------------------------------------------------
 Estimated maximum stack depth 3
 ---------------------------------------------------------------------------------
 (Depth) Function   	        Calls       Base Space   Used Autos Params    Refs
 ---------------------------------------------------------------------------------
 (4) _timer                                                4     4      0      23
                                              0 COMMON     4     4      0
 ---------------------------------------------------------------------------------
 Estimated maximum stack depth 4
 ---------------------------------------------------------------------------------

 Call Graph Graphs:

 _main (ROOT)
   _EEPROM_Read_Page
     _i2c_ACK
       _i2c_Wait
     _i2c_Read
       _i2c_Wait
     _i2c_Restart
       _i2c_Wait
     _i2c_Start
       _i2c_Wait
     _i2c_Stop
       _i2c_Wait
     _i2c_Write
       _i2c_Wait
   _EEPROM_Write_Page
     _i2c_Restart
       _i2c_Wait
     _i2c_Start
       _i2c_Wait
     _i2c_Stop
       _i2c_Wait
     _i2c_Write
       _i2c_Wait
     _strlen
   _PWMDuty
     ___fldiv
       ___xxtofl (ARG)
     ___flmul
       __Umul8_16
       ___fldiv (ARG)
         ___xxtofl (ARG)
       ___xxtofl (ARG)
     ___fltol
       ___fldiv (ARG)
         ___xxtofl (ARG)
       ___flmul (ARG)
         __Umul8_16
         ___fldiv (ARG)
           ___xxtofl (ARG)
         ___xxtofl (ARG)
       ___xxtofl (ARG)
     ___xxtofl
     _valuefromSensor (ARG)
   _PWMSetup
   _adcSetup
   _buzzer
   _i2cSetup
     ___lldiv
   _sendMessage
     _sprintf
       ___lwdiv
       ___lwmod
         ___lwdiv (ARG)
     _strlen
     _uartSendString
       _uartSendChar
   _uartSendString
     _uartSendChar
   _usartSetup
   _valuefromSensor

 _timer (ROOT)

 Address spaces:
Name               Size   Autos  Total    Cost      Usage
BANK3               60     5A      5A       9       93.8%
BITBANK3            60      0       0       8        0.0%
SFR3                 0      0       0       4        0.0%
BITSFR3              0      0       0       4        0.0%
BANK2               60      0       0      11        0.0%
BITBANK2            60      0       0      10        0.0%
SFR2                 0      0       0       5        0.0%
BITSFR2              0      0       0       5        0.0%
BANK1               50     16      26       7       47.5%
BITBANK1            50      0       0       6        0.0%
SFR1                 0      0       0       2        0.0%
BITSFR1              0      0       0       2        0.0%
BANK0               50     50      50       5      100.0%
BITBANK0            50      0       0       4        0.0%
SFR0                 0      0       0       1        0.0%
BITSFR0              0      0       0       1        0.0%
COMMON               E      6       A       1       71.4%
BITCOMMON            E      0       0       0        0.0%
CODE                 0      0       0       0        0.0%
DATA                 0      0      DA      12        0.0%
ABS                  0      0      DA       3        0.0%
NULL                 0      0       0       0        0.0%
STACK                0      0       0       2        0.0%
EEDATA             100      0       0       0        0.0%


Microchip Technology PIC Macro Assembler V2.20 build 20200408173844 
Symbol Table                                                                                   Wed Jun 03 17:15:51 2020

              ___fldiv@aexp 0047                ___fldiv@bexp 0046                           _s 00BC  
                         pc 0002                ___fldiv@sign 003F                          fsr 0004  
       __Umul8_16@word_mpld 0024                         l101 07FA                         l110 0AFE  
                       l104 07FE                         l113 0963                         l123 0D66  
                       l116 092E                         l140 098E                         l221 0947  
                       l109 0AFD                         l230 0913                         l119 0946  
                       l143 09BA                         l224 0953                         l233 0925  
                       l242 0997                         l218 0A49                         l146 09C4  
                       l162 0504                         l154 0626                         l227 091C  
                       l171 05F6                         l244 099C                         l236 096E  
                       l180 0602                         l245 09A5                         l149 0A82  
                       l238 0972                         l239 0978                         l183 0604  
                       l248 093A                         l272 0BA5                         l281 0C77  
                       l185 0609                         l266 0B50                         l178 05FD  
                       l275 0C19                         l187 0648                         l436 0C0D  
                       l801 03A5                         l810 0A11                         l396 0778  
                       l751 0FFF                         l808 09FF                         l672 0B44  
                       l593 07DF                         l833 0D8B                         l586 07F4  
                       l682 0ABE                         l835 0E22                         l596 07F4  
                       l773 0FF3                         l765 0F71                         l749 0E7F  
                       l854 09E8                         l846 0DEC                         l847 0DF8  
                       l795 031D                         l789 03B1                         _PR2 0092  
                       _PEN 048A                         _SEN 0488                         _em1 00C2  
                       _em2 00C0                         fsr0 0004                         indf 0000  
 __end_of_EEPROM_Write_Page 0BA6                ___flmul@aexp 0056                ___flmul@bexp 005B  
             ??_i2c_Restart 0074                ___flmul@sign 0055                ___flmul@temp 0060  
              ___flmul@prod 005C                ___fltol@exp1 006B                        l3000 09D2  
                      l2200 0E93                        l3002 09E0                        l2202 0E97  
                      l3010 0BBB                        l2060 0919                        l2220 0ED8  
                      l2212 0EAE                        l3100 0099                        l3020 0BE7  
                      l3012 0BC4                        l2062 090B                        l2070 0965  
                      l2230 0EF6                        l2222 0EDA                        l2214 0EC0  
                      l2206 0EA0                        l3110 00B5                        l3102 00A1  
                      l3022 0BF5                        l3014 0BC8                        l3006 0BA6  
                      l2080 0994                        l2064 0910                        l2072 096A  
                      l2224 0EDF                        l2232 0EFF                        l2240 0F24  
                      l2216 0EC8                        l2208 0EA5                        l2160 0E2A  
                      l3200 0391                        l3120 00F8                        l3104 00A3  
                      l3040 07A4                        l3032 0779                        l3024 0BF6  
                      l3016 0BCC                        l3008 0BB8                        l2090 0932  
                      l2082 099D                        l2058 0914                        l2066 091D  
                      l2074 0973                        l2250 0F41                        l2242 0F2A  
                      l2234 0F11                        l2226 0EF1                        l2218 0ED0  
                      l2170 0E3F                        l2162 0E30                        l3202 0399  
                      l3130 0181                        l3122 0114                        l3114 00BE  
                      l3106 00AB                        l3042 07A5                        l3034 0786  
                      l3026 0BFF                        l3018 0BD5                        l2092 0937  
                      l2084 09A2                        l2068 0922                        l3300 0B5B  
                      l2260 0F56                        l2252 0F42                        l2244 0F32  
                      l2236 0F12                        l2228 0EF5                        l2180 0E57  
                      l2172 0E47                        l2164 0E34                        l3204 039D  
                      l3140 01F4                        l3132 0191                        l3124 0140  
                      l3116 00CE                        l3108 00B0                        l3044 07AD  
                      l3220 0D93                        l3212 0D6A                        l2500 093F  
                      l3028 0C05                        l2078 098F                        l3310 0B96  
                      l3302 0B6B                        l2270 0F7B                        l2262 0F5A  
                      l2254 0F4B                        l2246 0F34                        l2238 0F20  
                      l2190 0E6C                        l2182 0E5D                        l2174 0E48  
                      l2166 0E35                        l2158 0E23                        l3206 039E  
                      l3150 02A1                        l3142 0211                        l3134 01AE  
                      l3126 015C                        l3118 00DB                        l3070 0051  
                      l3054 07BB                        l3046 07AF                        l3038 078F  
                      l3230 0DAE                        l3214 0D6F                        l2502 0942  
                      l2088 092F                        l3320 0C3F                        l3312 0BA0  
                      l3304 0B7E                        l2280 0FB9                        l2272 0F89  
                      l2264 0F6E                        l2248 0F3D                        l2256 0F51  
                      l2192 0E74                        l2184 0E61                        l2168 0E3A  
                      l2176 0E4A                        l3208 03A9                        l3160 02ED  
                      l3152 02C9                        l3144 023E                        l3136 01BE  
                      l3128 0178                        l3080 0068                        l3072 0058  
                      l3064 07D4                        l3056 07C4                        l3048 07B3  
                      l3240 0DD7                        l3232 0DB5                        l3224 0D9C  
                      l3216 0D73                        l2504 0943                        l3330 0C6B  
                      l3322 0C44                        l3314 0C0E                        l3306 0B81  
                      l2290 0FE3                        l2282 0FC7                        l2274 0F8D  
                      l2258 0F55                        l2194 0E75                        l2186 0E62  
                      l2178 0E52                        l3170 0302                        l3162 02EE  
                      l3154 02D2                        l3146 024E                        l3138 01DB  
                      l3090 0084                        l3082 006D                        l3074 005E  
                      l3066 07E4                        l3058 07CD                        l3250 0E10  
                      l3242 0DE2                        l3234 0DB9                        l3226 0DA1  
                      l3218 0D83                        l2506 0944                        l3332 0C72  
                      l3324 0C54                        l3316 0C14                        l3308 0B8E  
                      l2292 0FE9                        l2284 0FD6                        l2276 0FA6  
                      l2268 0F76                        l2188 0E67                        l2196 0E77  
                      l3180 0327                        l3172 0306                        l3164 02F7  
                      l3156 02E0                        l3148 027B                        l3092 008A  
                      l3084 0075                        l3076 0062                        l3068 07E9  
                      l3252 0E15                        l3244 0DE6                        l3236 0DC7  
                      l3228 0DA5                        l3260 0CEC                        l2508 0945  
                      l3420 04F9                        l3412 04EE                        l3404 04DB  
                      l3340 03C1                        l3326 0C59                        l3318 0C24  
                      l2294 0FED                        l2286 0FDA                        l2278 0FAC  
                      l2198 0E87                        l3190 0365                        l3182 0335  
                      l3174 031A                        l3158 02E9                        l3166 02FD  
                      l3094 008E                        l3086 0077                        l3078 0063  
                      l3254 0E19                        l3246 0DF0                        l3238 0DD0  
                      l3262 0CF7                        l3270 0979                        l3430 051C  
                      l3422 04FF                        l3414 04F4                        l3406 04E1  
                      l3350 03D9                        l3342 03C2                        l3328 0C61  
                      l2296 0FEF                        l2288 0FE2                        l3192 0370  
                      l3184 0339                        l3168 0301                        l3096 008F  
                      l3088 007F                        l3256 0E1A                        l3248 0DFA  
                      l3264 0D46                        l3272 097C                        l3280 09BE  
                      l3440 0569                        l3432 0524                        l3360 040E  
                      l3352 03E7                        l3344 03C3                        l3336 03B2  
                      l3194 037F                        l3186 0352                        l3178 0322  
                      l3098 0094                        l3266 0D50                        l3274 098A  
                      l3290 0A16                        l1930 0A95                        l3450 05A6  
                      l3442 0571                        l3434 0547                        l3370 041C  
                      l3362 0411                        l3354 03F9                        l3346 03C9  
                      l3338 03BC                        l2900 09F9                        l3196 0389  
                      l3188 0358                        l3268 0D5A                        l3292 0A19  
                      l1940 0AB4                        l1932 0A99                        l1924 0A83  
                      l3284 0A4A                        l2492 0954                        l3276 09A6  
                      l3460 05E9                        l3452 05AE                        l3444 0576  
                      l3436 054C                        l3428 0504                        l3380 0462  
                      l3372 0420                        l3364 0413                        l3356 0404  
                      l3348 03CA                        l2902 0A08                        l3198 038B  
                      l3294 0A48                        l1934 0A9D                        l1926 0A8B  
                      l1942 0ABA                        l2910 0AC4                        l3286 0A77  
                      l2494 095F                        l3278 09B9                        l3470 060B  
                      l3462 05F1                        l3454 05B0                        l3446 0586  
                      l3438 0551                        l3390 049D                        l3382 0485  
                      l3374 0424                        l3366 0417                        l3358 0409  
                      l3296 0B45                        l2904 0A0D                        l2496 0926  
                      l3288 0A12                        l1936 0AA7                        l1928 0A8E  
                      l2920 0659                        l2912 0ADD                        l3480 062F  
                      l3552 0618                        l3456 05D3                        l3448 0596  
                      l3464 05F6                        l3392 04C0                        l3384 0489  
                      l3376 0429                        l3472 0620                        l3368 0418  
                      l3298 0B4B                        l2498 093B                        l1938 0AAD  
                      l3554 06B9                        l2930 0674                        l2922 0660  
                      l2914 0AE5                        l3490 063E                        l3482 0630  
                      l3474 0629                        l3458 05D9                        l3394 04C4  
                      l3386 048F                        l3378 045A                        l2932 067A  
                      l2940 0698                        l2924 0665                        l2916 064E  
                      l1892 07F6                        l2908 0ABF                        l3492 0646  
                      l3484 0633                        l3476 062D                        l3396 04C8  
                      l3388 0497                        l1894 0947                        l2870 0B03  
                      l2950 06D3                        l2934 067F                        l2926 0667  
                      l2918 0653                        l3486 0634                        l3478 062E  
                      l3398 04CE                        l1896 094D                        l2880 0B1B  
                      l2872 0B09                        l2952 06D7                        l2936 068E  
                      l2928 0670                        l2944 06A7                        l3488 0638  
                      l2882 0B2C                        l2874 0B0C                        l2890 0B40  
                      l2970 0708                        l2962 06E2                        l2954 06DB  
                      l2946 06C7                        l2938 0694                        l2884 0B32  
                      l2876 0B13                        l2868 0AFF                        l2980 074E  
                      l2972 070E                        l2956 06E0                        l2948 06CF  
                      l2894 09EC                        l2886 0B33                        l2878 0B17  
                      l2982 0755                        l2974 0715                        l2966 06FE  
                      l2896 09EE                        l2888 0B3A                        l2984 0759  
                      l2976 0719                        l2968 0702                        l2898 09F5  
                      l2978 071E                        l2986 0762                        l2996 09C5  
                      l2988 0774                        l2998 09CC                        STR_1 081A  
                      STR_2 0853                        STR_3 0862                        STR_4 0865  
                      STR_5 085E                        STR_6 085A                        STR_7 084C  
                      u2300 0E67                        u2301 0E66                        u2070 0972  
                      u2310 0E6C                        u2071 0971                        u2311 0E6B  
                      u2080 099C                        u2400 0F2A                        u2320 0E87  
                      u2081 099B                        u2401 0F29                        u2321 0E86  
                      u2410 0F32                        u2330 0EA5                        u2411 0F31  
                      u2331 0EA4                        u4011 01A0                        u2500 0F8D  
                      u2340 0EDF                        u2260 0E34                        u4012 01A7  
                      u2501 0F8C                        u2341 0EDE                        u2261 0E33  
                      u4101 02BB                        u4021 01CD                        u4013 01AE  
                      u4005 017A                        u2510 0F9C                        u2430 0F41  
                      u2270 0E3A                        u4102 02C2                        u4022 01D4  
                      u2431 0F40                        u2271 0E39                        u4103 02C9  
                      u4023 01DB                        u2520 0FB9                        u2280 0E3F  
                      u4200 0339                        u2521 0FB8                        u2425 0F36  
                      u2281 0E3E                        u4201 0338                        u4041 0203  
                      u2530 0FD6                        u2450 0F55                        u2370 0EF5  
                      u2290 0E61                        u4210 0348                        u4130 02ED  
                      u4042 020A                        u2531 0FD5                        u2515 0F97  
                      u2451 0F54                        u2371 0EF4                        u2355 0EE1  
                      u2291 0E60                        u4131 02EC                        u4115 02CB  
                      u4051 0230                        u4043 0211                        u4035 01DD  
                      u2540 0FED                        u2460 0F5A                        u4220 0365  
                      u4052 0237                        u3500 0B1B                        u1900 0ABA  
                      u2541 0FEC                        u2525 0FB5                        u2461 0F59  
                      u2445 0F44                        u2365 0EEA                        u4221 0364  
                      u4125 02E2                        u4061 025D                        u4053 023E  
                      u3501 0B1A                        u1901 0AB9                        u2470 0F6E  
                      u2390 0F11                        u4230 037F                        u4150 0301  
                      u4070 0287                        u4062 0264                        u4310 0DD6  
                      u1750 07FE                        u2535 0FD2                        u2471 0F6D  
                      u2391 0F10                        u4231 037E                        u4215 0343  
                      u4151 0300                        u4063 026B                        u4311 0DD5  
                      u1751 07FD                        u1760 094D                        u2480 0F75  
                      u4240 039D                        u4160 0306                        u4400 0D4D  
                      u3520 0B2C                        u3600 0AFD                        u1761 094C  
                      u2481 0F74                        u2385 0EF8                        u4241 039C  
                      u4225 0361                        u4161 0305                        u4145 02F0  
                      u4081 0293                        u4305 0DC8                        u4401 0D49  
                      u3521 0B2B                        u3601 0AFC                        u1770 0953  
                      u2490 0F7B                        u4170 031A                        u4090 02AF  
                      u4082 029A                        u4330 0DE6                        u4250 0D6F  
                      u1850 0A8B                        u3610 0659                        u1771 0952  
                      u2491 0F7A                        u2395 0F0D                        u4235 037B  
                      u4171 0319                        u4083 02A1                        u4075 0282  
                      u4331 0DE5                        u4251 0D6E                        u3515 0B1C  
                      u1851 0A8A                        u3611 0658                        u4500 0C6B  
                      u3700 09E0                        u4180 0321                        u4340 0DEC  
                      u4260 0D73                        u4420 0D57                        u3540 0B40  
                      u3620 067A                        u4501 0C6A                        u3701 09DF  
                      u4181 0320                        u4341 0DEB                        u4325 0DDB  
                      u4261 0D72                        u4421 0D53                        u3541 0B3F  
                      u3525 0B28                        u3621 0679                        u3550 09F9  
                      u4190 0327                        u4350 0DF0                        u4270 0D93  
                      u4414 0D50                        u3710 0BB8                        u1870 0A9D  
                      u3630 06A6                        u4510 03C9                        u3551 09F8  
                      u4191 0326                        u4095 02AA                        u4351 0DEF  
                      u4271 0D92                        u3711 0BB7                        u3535 0B34  
                      u1871 0A9C                        u3631 06A5                        u4511 03C8  
                      u3800 07B3                        u4360 0E05                        u3480 0B09  
                      u1880 0AA7                        u3640 06D7                        u4600 0524  
                      u4520 0462                        u4505 0C67                        u3801 07B2  
                      u3481 0B08                        u1881 0AA6                        u1865 0A8F  
                      u3641 06D6                        u4601 0523                        u4521 0461  
                      u3570 0A0D                        u3810 07BA                        u4370 0E15  
                      u4290 0DB4                        u4434 0D5A                        u3730 0BCC  
                      u3650 06FD                        u4450 09BE                        u4610 0569  
                      u4530 048F                        u3571 0A0C                        u3811 07B9  
                      u4371 0E14                        u4291 0DB3                        u3731 0BCB  
                      u3651 06FC                        u4451 09BD                        u4611 0568  
                      u4531 048E                        u3900 006D                        u4380 0E19  
                      u4460 0A29                        u3660 0708                        u3580 0ACE  
                      u4700 0602                        u4620 0571                        u4540 049D  
                      u3565 0A00                        u3901 006C                        u4381 0E18  
                      u4365 0E00                        u4285 0DA6                        u3725 0BBD  
                      u1885 0AA3                        u3661 0707                        u4445 09AF  
                      u4701 0601                        u4621 0570                        u4541 049C  
                      u4470 0B5B                        u3910 008E                        u3830 07CC  
                      u4390 0CF7                        u3750 0BE7                        u3670 070E  
                      u3590 0AEF                        u4710 0609                        u4630 0586  
                      u4550 04CE                        _INTF 0059                        u4471 0B5A  
                      u3911 008D                        u3831 07CB                        u4391 0CF6  
                      u3751 0BE6                        u3495 0B0D                        u1895 0AAE  
                      u3671 070D                        u3655 06F9                        u4711 0608  
                      u4631 0585                        u4615 0565                        u4551 04CD  
                      u4480 0BA0                        u3920 0094                        u3840 07D3  
                      u3680 0762                        u4720 0626                        u4640 0596  
                      u4560 04E1                        u4481 0B9F                        u3921 0093  
                      u3841 07D2                        u3825 07BC                        u3745 0BCE  
                      u4465 0A24                        u3681 0761                        u4721 0625  
                      u4641 0595                        u4561 04E0                        u4490 0C24  
                      u3930 0099                        u3770 0C05                        u3690 0774  
                      u4650 05A6                        u4570 04F4                        u4491 0C23  
                      u3931 0098                        u3771 0C04                        u3755 0BE3  
                      u3691 0773                        u4651 05A5                        u4635 0582  
                      u4571 04F3                        u3940 00B0                        u3860 07E4  
                      u3780 0786                        u4660 05AE                        u4580 04FF  
                      _RCEN 048B                        _RCIF 0065                        u4485 0B9C  
                      u3941 00AF                        u3861 07E3                        u3781 0785  
                      u3765 0BF7                        u4661 05AD                        u4645 0592  
                      u4581 04FE                        u3950 00B5                        u3870 07E9  
                      u3790 079D                        u4670 05E9                        u4590 051C  
                      u3951 00B4                        u3871 07E8                        u3855 07D6  
                      u4671 05E8                        u4655 05A2                        u4591 051B  
                      u3880 0062                        u4680 05F1                        u3961 0106  
                      u3881 0061                        u4737 0984                        u4681 05F0  
                      u3962 010D                        u3890 0068                        u4690 05FC  
                      u3971 0122                        u3963 0114                        u3891 0067  
                      u3795 0798                        u4691 05FB                        u4675 05E5  
                      u4595 0518                        u3972 0129                        u3981 014E  
                      u3973 0130                        u3982 0155                        u3991 016A  
                      u3983 015C                        u3992 0171                        u3993 0178  
                      _RSEN 0489          sendMessage@velVent 0044                        _TXIF 0064  
                      _main 03B2                        _send 00BE                        btemp 007E  
           __end_of_PWMDuty 0D67                        start 000C             ___fldiv@new_exp 0040  
           __end_of_i2c_ACK 093B        EEPROM_Write_Page@add 0022        EEPROM_Write_Page@len 0025  
              i2cSetup@baud 002D         sendMessage@humidade 0042               ___fltol@sign1 006A  
                     ?_main 0070                       _ACKEN 048C                       _ACKDT 048D  
                     _CCP1X 00BD             __end_of___fldiv 1000                       _CCP1Y 00BC  
           __end_of___flmul 03B2             __end_of___fltol 07F5             __end_of___lldiv 0C0E  
                     _T1CON 0010             __end_of___lwdiv 0B45           ??_valuefromSensor 0020  
                     i1l137 0CE5             __end_of___lwmod 0ABF                       _RCREG 001A  
                     _TMR1H 000F                       _TMR1L 000E                       _SPBRG 0099  
                     _PORTC 0007                       _SSPIF 0063                       _TXREG 0019  
       sendMessage@temp_buf 0190             __end_of_dpowers 081A                       _count 00B6  
                     _timer 0C78                       _veloc 0078                       _start 0076  
                     pclath 000A            __end_of_PWMSetup 0947         __end_of_i2c_Restart 0914  
                     status 0003                       wtemp0 007E             __end_of_sprintf 0779  
           __initialization 000F                __end_of_main 064B            __end_of_i2c_Read 09A6  
          __end_of_i2c_Wait 0954            __end_of_i2cSetup 0A4A            __end_of_i2c_Stop 0926  
  __end_of_EEPROM_Read_Page 0C78                      ??_main 00A0                ?_sendMessage 0040  
     EEPROM_Write_Page@data 0024  __size_of_EEPROM_Write_Page 0061                      _ADCON0 001F  
                    _ADCON1 009F                      _ADRESH 001E                      _ADRESL 009E  
                    _CCPR1L 0015                      ?_timer 0070            __end_of_adcSetup 092F  
                 ??_PWMDuty 006E          __size_of_i2c_Start 0009                      i1l2600 0C98  
                    i1l2610 0CBA                      i1l2602 0CA5                      i1l2620 0CCD  
                    i1l2612 0CBE                      i1l2604 0CAE                      i1l2630 0CE1  
                    i1l2622 0CD3                      i1l2614 0CBF                      i1l2606 0CB0  
                    i1l2624 0CD7                      i1l2608 0CB4                      i1l2616 0CC1  
                    i1l2626 0CD8                      i1l2618 0CC7                      i1l2628 0CDE  
                    i1l2592 0C78                      i1l2594 0C7C                      i1l2596 0C7D  
                    i1l2598 0C8D          __size_of_i2c_Write 0015                      u320_20 0CAE  
                    u320_21 0CAD                      u321_20 0CCD                      u321_21 0CCC  
                    u322_20 0CD7                      u322_21 0CD6                      u323_20 0CDE  
                    u323_21 0CDD                      u318_20 0C7C                      u318_21 0C7B  
                    u319_20 0C98                      u319_21 0C97                      _TMR0IF 005A  
                    _SSPADD 0093                   ??_i2c_ACK 0074                      _SSPCON 0014  
                    _SSPBUF 0013            __end_of___xxtofl 0E23               main@param_hum 00AD  
             main@param_vel 00AB            timer@countTimer1 0072                   ??___fldiv 0036  
                 ??___flmul 0050                   ??___fltol 0066                   ??___lldiv 0074  
      sendMessage@situation 0046                   ??___lwdiv 0074                   ??___lwmod 0074  
                    _buzzer 0979                      _strlen 09C5               i2c_Write@data 0074  
              __pdataCOMMON 0078             uartSendString@i 0025          __size_of__Umul8_16 0029  
                    saved_w 007E                 _i2c_Restart 090B                   ??_sprintf 0034  
              ___xxtofl@arg 002A                ___xxtofl@exp 0029                ___xxtofl@val 0020  
   __end_of__initialization 004D                  ___fltol@f1 0062              __pcstackCOMMON 0070  
              __pidataBANK1 0905               __end_of_timer 0CEC           __end_of_i2c_Start 091D  
         __end_of_i2c_Write 0979                   ?_PWMSetup 0070                     ??_timer 0070  
                 ?_i2c_Read 0070                  __pbssBANK1 00B6                   ?_i2c_Wait 0070  
                 ?_i2cSetup 002D                   ?_i2c_Stop 0070           __end_of__Umul8_16 0A12  
                __pmaintext 03B2             _valuefromSensor 09A6            uartSendChar@data 0074  
   __size_of_uartSendString 0040                  __pintentry 0004                     _ACKSTAT 048E  
                   ?_buzzer 0070                   ?_adcSetup 0070                  ??_PWMSetup 0074  
                   ?_strlen 0074                   ?___xxtofl 0020        __size_of_sendMessage 0039  
                   _SSPCON2 0091                     _SSPSTAT 0094                     _PWMDuty 0CEC  
                __stringtab 0800                  ??_i2c_Read 0074                  ??_i2c_Wait 0074  
                ??_i2cSetup 0031                  ??_i2c_Stop 0074                     _i2c_ACK 092F  
            main@param_temp 00A9                     ___fldiv 0E23                     ___flmul 0051  
                   ___fltol 0779                     ___lldiv 0BA6                     ___lwdiv 0AFF  
                   ___lwmod 0A83               ?_uartSendChar 0070                  ??_adcSetup 0074  
           __size_of_buzzer 0016                     __ptext1 09A6                     __ptext2 0954  
                   __ptext3 0A4A                     __ptext4 0ABF                     __ptext5 07F5  
                   __ptext6 064B                     __ptext7 0A83                     __ptext8 0AFF  
                   __ptext9 0A12           ?_EEPROM_Read_Page 0020             __size_of_strlen 0024  
                   _dpowers 0810                   _T2CONbits 0012                  ??___xxtofl 0024  
        ??_EEPROM_Read_Page 0075                     _sprintf 064B                     main@hum 00B4  
      end_of_initialization 004D     __end_of_valuefromSensor 09C5             ___lldiv@divisor 0020  
           ___lldiv@counter 002C                   _RCSTAbits 0018              ??_uartSendChar 0074  
                   strlen@s 0074                   _PORTBbits 0006                   _PORTCbits 0007  
             ___xxtofl@sign 0028                   _TRISBbits 0086                   _TRISCbits 0087  
              ?_i2c_Restart 0070                 ___fldiv@grs 0042                 ___fldiv@rem 003B  
           sendMessage@temp 0040                 ___flmul@grs 0057          EEPROM_Write_Page@i 0027  
               _CCP1CONbits 0017                   _TXSTAbits 0098                  _usartSetup 0954  
                main@rajada 00AF              _uartSendString 0ABF               __pidataCOMMON 0903  
            __end_of_buzzer 098F                   _i2c_Start 0914              __end_of_strlen 09E9  
                 _i2c_Write 0964         start_initialization 000F           __size_of_PWMSetup 000C  
          ?_valuefromSensor 0074           __size_of_i2c_Read 0017           __size_of_i2c_Wait 000D  
         __size_of_i2cSetup 0038           __size_of_i2c_Stop 0009      __end_of_uartSendString 0AFF  
               PWMDuty@duty 006C                   __Umul8_16 09E9                 __pdataBANK1 00C0  
                  ??_buzzer 0020                    ??_strlen 0076           __size_of_adcSetup 0009  
                 ___fldiv@a 002E                   ___fldiv@b 0032                  ?_i2c_Start 0070  
                ?_i2c_Write 0070                   ___flmul@a 004C                   ___flmul@b 0048  
               __pbssCOMMON 0076                   ___latbits 0002               __pcstackBANK0 0020  
             __pcstackBANK1 00A0               __pcstackBANK3 0190           __size_of___xxtofl 00BC  
                  ?_PWMDuty 006C        __end_of_uartSendChar 07FF                 sprintf@flag 0037  
                  ?_i2c_ACK 0070                 sprintf@prec 0038                 ?_usartSetup 0070  
           ?_uartSendString 0020            ___lwdiv@dividend 0022                    ?___fldiv 002E  
                  ?___flmul 0048                    ?___fltol 0062                    ?___lldiv 0020  
                ?__Umul8_16 0074                    ?___lwdiv 0020                    ?___lwmod 0027  
                 __pstrings 0800               ??_sendMessage 0076            ___lwdiv@quotient 0025  
                  ?_sprintf 002B                   _old_Veloc 00C4              __size_of_timer 0074  
      __size_of_i2c_Restart 0009   __size_of_EEPROM_Read_Page 006A           interrupt_function 0004  
                  _PIR1bits 000C                    _GO_nDONE 00FA                 __stringbase 080F  
                  _PWMSetup 093B                 ??_i2c_Start 0074         __size_of_usartSetup 0010  
               ??_i2c_Write 0074                   main@teste 00A3         __end_of_sendMessage 0A83  
                  _i2c_Read 098F                    _i2c_Wait 0947                    _i2cSetup 0A12  
                  _i2c_Stop 091D      valuefromSensor@channel 0074            __size_of_PWMDuty 007B  
          __size_of_i2c_ACK 000C                 ??__Umul8_16 0020            __size_of___fldiv 01DD  
          __size_of___flmul 0361            __size_of___fltol 007C            __size_of___lldiv 0068  
          __size_of___lwdiv 0046            __size_of___lwmod 003C                    _adcSetup 0926  
        __end_of__stringtab 0810                  sprintf@val 003C                    ___xxtofl 0D67  
     __size_of_uartSendChar 000A             ___lwdiv@divisor 0020             ___lwdiv@counter 0024  
                  __ptext10 0BA6                    __ptext11 0979                    __ptext20 0B45  
                  __ptext12 0926                    __ptext21 09C5                    __ptext13 093B  
                  __ptext30 0C78                    __ptext22 0C0E                    __ptext14 0CEC  
                  __ptext23 0964                    __ptext15 0D67                    __ptext24 091D  
                  __ptext16 0779                    __ptext25 0914                    __ptext17 0051  
                  __ptext26 090B                    __ptext18 09E9                    __ptext27 098F  
                  __ptext19 0E23                    __ptext28 092F                    __ptext29 0947  
          __size_of_sprintf 012E               __size_of_main 0299                    _received 00BA  
                  main@name 00B3                _uartSendChar 07F5                    main@temp 00B1  
               _sendMessage 0A4A                  _INTCONbits 000B        EEPROM_Read_Page@data 0022  
                  intlevel1 0000                   sprintf@ap 0039                   sprintf@cp 003A  
         uartSendString@str 0020                   sprintf@sp 003E            ??_uartSendString 0022  
          _EEPROM_Read_Page 0C0E            ___lwmod@dividend 0029            ___lldiv@dividend 0024  
              ??_usartSetup 0074                   stringcode 080A    __size_of_valuefromSensor 001F  
       EEPROM_Read_Page@add 0020         EEPROM_Read_Page@len 0023      __Umul8_16@multiplicand 0074  
                _OPTION_REG 0081                    sprintf@c 003F                    sprintf@f 002B  
          ___lldiv@quotient 0028             ___lwmod@divisor 0027                    strlen@cp 0020  
           ___lwmod@counter 0074          __end_of_usartSetup 0964                    stringdir 080A  
                  stringtab 0800           _EEPROM_Write_Page 0B45          ?_EEPROM_Write_Page 0022  
         EEPROM_Read_Page@i 0025        __Umul8_16@multiplier 0026         ??_EEPROM_Write_Page 0076  
         __Umul8_16@product 0022  
